GAS LISTING C:\DOCUME~1\Schmidt\LOCALS~1\Temp\ccKmaaaa.s 			page 1


   1              		.file	1 "nsl_ps2_sound.cpp"
   2              		#@stabs
   3              	gcc2_compiled.:
   4              	__gnu_compiled_cplusplus:
   5              	.stabs "C:\\NSL\\WORKING\\ps2/",100,0,0,$Ltext0
   6              	.stabs "nsl_ps2_sound.cpp",100,0,0,$Ltext0
   7              		.text
   8              	$Ltext0:
   9              	.stabs "int:t1=r1;00000000000000000000000000000000020000000000;000000000000000000000000000000000177
  10              	.stabs "char:t2=r2;0;127;",128,0,0,0
  11              	.stabs "long int:t3=r1;00000000000000000000001000000000000000000000;0000000000000000000000077777777
  12              	.stabs "unsigned int:t4=r1;00000000000000000000000000000000000000000000;000000000000000000000000000
  13              	.stabs "long unsigned int:t5=r1;00000000000000000000000000000000000000000000;0000000000000000000000
  14              	.stabs "long long int:t6=r1;00000000000000000000001000000000000000000000;00000000000000000000000777
  15              	.stabs "long long unsigned int:t7=r1;00000000000000000000000000000000000000000000;00000000000000000
  16              	.stabs "short int:t8=r8;-32768;32767;",128,0,0,0
  17              	.stabs "short unsigned int:t9=r9;0;65535;",128,0,0,0
  18              	.stabs "signed char:t10=r10;-128;127;",128,0,0,0
  19              	.stabs "unsigned char:t11=r11;0;255;",128,0,0,0
  20              	.stabs "__int128_t:t12=r1;02000000000000000000000000000000000000000000;0177777777777777777777777777
  21              	.stabs "__uint128_t:t13=r1;00000000000000000000000000000000000000000000;037777777777777777777777777
  22              	.stabs "float:t14=r1;4;0;",128,0,0,0
  23              	.stabs "double:t15=r1;8;0;",128,0,0,0
  24              	.stabs "long double:t16=r1;8;0;",128,0,0,0
  25              	.stabs "complex int:t17=s8real:1,0,32;imag:1,32,32;;",128,0,0,0
  26              	.stabs "complex float:t18=r18;4;0;",128,0,0,0
  27              	.stabs "complex double:t19=r19;8;0;",128,0,0,0
  28              	.stabs "complex long double:t20=r20;8;0;",128,0,0,0
  29              	.stabs "bool:t21=@s32;-16;",128,0,0,0
  30              	.stabs "void:t22=22",128,0,0,0
  31              	.stabs "__wchar_t:t23=r1;00000000000000000000000000000000020000000000;00000000000000000000000000000
  32              	.stabs "__vtbl_ptr_type:t24=s8__delta:8,0,16;__index:8,16,16;__pfn:25=*22,32,32;__delta2:8,32,16;;"
  33              	.stabs "nlUchar:t26=11",128,0,14,0
  34              	.stabs "nlUint8:t27=11",128,0,15,0
  35              	.stabs "nlUint16:t28=9",128,0,16,0
  36              	.stabs "nlUint32:t29=4",128,0,17,0
  37              	.stabs "nlUint64:t30=5",128,0,18,0
  38              	.stabs "nlInt8:t31=10",128,0,19,0
  39              	.stabs "nlInt16:t32=8",128,0,20,0
  40              	.stabs "nlInt32:t33=1",128,0,21,0
  41              	.stabs "nlInt64:t34=3",128,0,22,0
  42              	.stabs "nlMatrix4x4:t35=36=ar1;0;3;37=ar1;0;3;14",128,0,31,0
  43              	.stabs "nlVector4d:t38=37",128,0,32,0
  44              	.stabs "nlVector3d:t39=40=ar1;0;2;14",128,0,33,0
  45              	.stabs "nslSourceId:t41=29",128,0,74,0
  46              	.stabs "nslSoundId:t42=29",128,0,75,0
  47              	.stabs "nslEmitterId:t43=29",128,0,76,0
  48              	.stabs "_nslSpeakerModeEnum:t44=eNSL_SPEAKER_STEREO:0,NSL_SPEAKER_MONO:1,NSL_SPEAKER_HEADPHONE:2,NS
  49              	.stabs "nslSpeakerModeEnum:t45=44",128,0,90,0
  50              	.stabs "_nslOutputModeEnum:t46=eNSL_OUTPUT_ANALOG:0,NSL_OUTPUT_DIGITAL:1,NSL_OUTPUT_BOTH:2,NSL_OUTP
  51              	.stabs "nslOutputModeEnum:t47=46",128,0,99,0
  52              	.stabs "_nslSourceTypeEnum:t48=eNSL_SOURCETYPE_SFX:0,NSL_SOURCETYPE_AMBIENT:1,NSL_SOURCETYPE_MUSIC:
  53              	.stabs "nslSourceTypeEnum:t49=48",128,0,114,0
  54              	.stabs "_nslSoundParamEnum:t50=eNSL_SOUNDPARAM_VOLUME:0,NSL_SOUNDPARAM_PITCH:1,NSL_SOUNDPARAM_MINDI
  55              	.stabs "nslSoundParamEnum:t51=50",128,0,124,0
  56              	.stabs "_nslSoundStatusEnum:t52=eNSL_SOUNDSTATUS_INVALID:0,NSL_SOUNDSTATUS_QUEUING:1,NSL_SOUNDSTATU
  57              	.stabs "nslSoundStatusEnum:t53=52",128,0,133,0
GAS LISTING C:\DOCUME~1\Schmidt\LOCALS~1\Temp\ccKmaaaa.s 			page 2


  58              	.stabs "_nslLanguageEnum:t54=eNSL_LANGUAGE_NONE:0,NSL_LANGUAGE_ENGLISH:1,NSL_LANGUAGE_FRENCH:2,NSL_
  59              	.stabs "nslLanguageEnum:t55=54",128,0,161,0
  60              	.stabs "_nslPlatformEnum:t56=eNSL_PLATFORM_PS2:0,NSL_PLATFORM_XBOX:1,NSL_PLATFORM_GAMECUBE:2,NSL_PL
  61              	.stabs "nslPlatformEnum:t57=56",128,0,173,0
  62              	.stabs "nslFileBuf:T58=s8Buf:59=*11,0,32;Size:4,32,32;__as::60=##61=&58;:RC10nslFileBuf;2A.;nslFile
  63              	.stabs "nslFileBuf:Tt58",128,0,200,0
  64              	.stabs "nslSystemCallbackStruct:Tt65=s24ReadFile:66=*67=f21,0,32;ReleaseFile:68=*69=f22,32,32;Criti
  65              	.stabs "__int32_t:t81=1",128,0,106,0
  66              	.stabs "__uint32_t:t82=4",128,0,107,0
  67              	.stabs "size_t:t83=4",128,0,170,0
  68              	.stabs "clock_t:t84=5",128,0,36,0
  69              	.stabs "time_t:t85=3",128,0,41,0
  70              	.stabs "tm:Tt86=s36tm_sec:1,0,32;tm_min:1,32,32;tm_hour:1,64,32;tm_mday:1,96,32;tm_mon:1,128,32;tm_
  71              	.stabs "ULong:t92=82",128,0,28,0
  72              	.stabs "_glue:Tt93=s12_next:94=*93,0,32;_niobs:1,32,32;_iobs:95=*96=xs__sFILE:,64,32;__as::97=##98=
  73              	.stabs "_Bigint:Tt101=s24_next:102=*101,0,32;_k:1,32,32;_maxwds:1,64,32;_sign:1,96,32;_wds:1,128,32
  74              	.stabs "_atexit:Tt108=s136_next:109=*108,0,32;_ind:1,32,32;_fns:110=ar1;0;31;111=*112=f22,64,1024;_
  75              	.stabs "__sbuf:Tt117=s8_base:59,0,32;_size:1,32,32;__as::118=##119=&117;:RC6__sbuf;2A.;__sbuf::120=
  76              	.stabs "_fpos_t:t123=3",128,0,74,0
  77              	.stabs "__sFILE:Tt96=s88_p:59,0,32;_r:1,32,32;_w:1,64,32;_flags:8,96,16;_file:8,112,16;_bf:117,128,
  78              	.stabs "_reent:Tt135=s748_errno:1,0,32;_stdin:95,32,32;_stdout:95,64,32;_stderr:95,96,32;_inc:1,128
  79              	.stabs "__as::164=#146,165=&146,166=*146,167=&146,22;:__as__Q26_reent3$_0RCQ26_reent3$_0;2A.;$_0::1
  80              	.stabs "__gnuc_va_list:t178=145",128,0,29,0
  81              	.stabs "fpos_t:t179=123",128,0,50,0
  82              	.stabs "FILE:t180=96",128,0,52,0
  83              	.stabs "GasRpcArgs:t181=s64string_arg:182=ar1;0;47;2,0,384;int_arg:183=ar1;0;3;1,384,128;__as::184=
  84              	.stabs "GasCommandEntry:t191=s12instance_id:4,0,32;set_volume:8,32,1;set_paused:8,33,1;set_pitch:8,
  85              	.stabs "GasStatusEntry:t199=s1is_valid:11,0,1;is_ready:11,1,1;is_playing:11,2,1;unused_bits:11,3,5;
  86              	.stabs "GasStatus:t207=s56rpc_retval1:1,0,32;rpc_retval2:1,32,32;instances:208=ar1;0;47;199,64,384;
  87              	.stabs "mallinfo:Tt216=s40arena:1,0,32;ordblks:1,32,32;smblks:1,64,32;hblks:1,96,32;hblkhd:1,128,32
  88              	.stabs "nslPs2CdDvdMode:t222=eNSL_PS2_CD_MODE:0,NSL_PS2_DVD_MODE:1,;",128,0,65,0
  89              	.stabs "nslSource:Tt223=s88used:21,0,32;looping:21,32,32;fileName:182,64,384;myId:41,448,32;size:1,
  90              	.stabs "nslSound:Tt229=s88isReady:21,0,32;used:21,32,32;inRange:21,64,32;isReallyReady:21,96,32;isP
  91              	.stabs "fifo_queue<unsigned int>:Tt235=s12queue:/0236=*42,0,32;queue_max:/08,32,16;start:/08,48,16;
  92              	.stabs "nslEmitter:Tt250=s64used:21,0,32;autoRelease:21,32,32;isALineEmitter:21,64,32;myId:43,96,32
  93              	.stabs "nslSystem:Tt256=s61648listenerPo:35,0,512;sourceSlots:257=ar1;0;255;223,512,180224;soundSlo
  94              	.stabs "_nslClearBehaviour:t266=eNSL_CLEAR_INIT:0,NSL_CLEAR_RESET:1,NSL_CLEAR_FREE:2,;",128,0,215,0
  95              	.stabs "_nslEmitterCallback:t267=268=*269=f1",128,0,223,0
  96              	.stabs "_nslSoundCallback:t270=271=*272=f1",128,0,228,0
  97              	.stabs "_nslSourceCallback:t273=274=*275=f1",128,0,232,0
  98              		.rdata
  99              		.align	3
 100              	$LC0:
 101 0000 42616420 		.ascii	"Bad Sound ID 0x%x\n\000"
 101      536F756E 
 101      64204944 
 101      20307825 
 101      780A00
 102 0013 00000000 		.align	3
 102      00
 103              	$LC1:
 104 0018 54686973 		.ascii	"This source id is the INVALID id\000"
 104      20736F75 
 104      72636520 
 104      69642069 
 104      73207468 
 105 0039 00000000 		.align	3
GAS LISTING C:\DOCUME~1\Schmidt\LOCALS~1\Temp\ccKmaaaa.s 			page 3


 105      000000
 106              	$LC2:
 107 0040 54686973 		.ascii	"This source has a bad GAS id\000"
 107      20736F75 
 107      72636520 
 107      68617320 
 107      61206261 
 108 005d 000000   		.align	3
 109              	$LC3:
 110 0060 54686973 		.ascii	"This source is above the max number of sources\000"
 110      20736F75 
 110      72636520 
 110      69732061 
 110      626F7665 
 111 008f 00       		.align	3
 112              	$LC4:
 113 0090 54686973 		.ascii	"This ID passed does not match the id for the source slot"
 113      20494420 
 113      70617373 
 113      65642064 
 113      6F657320 
 114 00c8 00       		.ascii	"\000"
 115 00c9 00000000 		.align	3
 115      000000
 116              	$LC5:
 117 00d0 54484520 		.ascii	"THE INSTANCE PART OF THE ID IS NOT > 0\000"
 117      494E5354 
 117      414E4345 
 117      20504152 
 117      54204F46 
 118 00f7 00       		.align	3
 119              	$LC6:
 120 00f8 4E534C20 		.ascii	"NSL NOT INITIALIZED\000"
 120      4E4F5420 
 120      494E4954 
 120      49414C49 
 120      5A454400 
 121 010c 00000000 		.align	3
 122              	$LC7:
 123 0110 42616420 		.ascii	"Bad Emitter ID 0x%x\n\000"
 123      456D6974 
 123      74657220 
 123      49442030 
 123      7825780A 
 124              	.stabs "__dmath:Tt276=u8i:277=ar1;0;1;4,0,64;d:15,0,64;__as::278=##279=&276;:RC7__dmath;2A.;__dmath
 125              	.stabs "__exception:Tt283=s40type:1,0,32;name:145,32,32;arg1:15,64,64;arg2:15,128,64;retval:15,192,
 126              	.stabs "__fdlibm_version:t289=e__fdlibm_ieee:-1,__fdlibm_svid:0,__fdlibm_xopen:1,__fdlibm_posix:2,;
 127 0125 000000   		.align	3
 128              	$LC8:
 129 0128 00       		.ascii	"\000"
 130              		.text
 131              		.p2align 3
 132              		.globl	nslAddSound__FUi
 133              	$LFB1:
 134              	$LM1:
 135              		.stabn 68,0,15,$LM1
 136              	.stabs "nsl_ps2_sound.cpp",132,0,0,$Ltext0
GAS LISTING C:\DOCUME~1\Schmidt\LOCALS~1\Temp\ccKmaaaa.s 			page 4


 137              		.ent	nslAddSound__FUi
 138              	nslAddSound__FUi:
 139              		.frame	$fp,48,$31		# vars= 16, regs= 4/0, args= 0, extra= 0
 140              		.mask	0xc0000000,-16
 141              		.fmask	0x00000000,0
 142 0000 D0FFBD27 		subu	$sp,$sp,48
 143              	$LCFI0:
 144 0004 2000BFFF 		sd	$31,32($sp)
 145              	$LCFI1:
 146 0008 1000BEFF 		sd	$fp,16($sp)
 147              	$LCFI2:
 148 000c 2DF0A003 		move	$fp,$sp
 149              	$LCFI3:
 150 0010 0000C4AF 		sw	$4,0($fp)
 151              	$LM2:
 152              		.stabn 68,0,15,$LM2
 153              	$LBB2:
 154              	$LM3:
 155              		.stabn 68,0,16,$LM3
 156 0014 0100023C 		lw	$2,nsl+61560
 156      78F0428C 
 157 001c 04004014 		bne	$2,$0,$L26
 157      00000000 
 158 0024 2D100000 		move	$2,$0
 159 0028 D0000010 		b	$L25
 159      00000000 
 160              		.p2align 2
 161              	$L26:
 162              	$LM4:
 163              		.stabn 68,0,17,$LM4
 164 0030 0000000C 		jal	_nslInitialized__Fv
 164      00000000 
 165              	$LM5:
 166              		.stabn 68,0,18,$LM5
 167 0038 0000C48F 		lw	$4,0($fp)
 168 003c 0000000C 		jal	_nslCheckSourceIdValidity__FUi
 168      00000000 
 169              	$LM6:
 170              		.stabn 68,0,20,$LM6
 171              	$LBB3:
 172 0044 0400C0AF 		sw	$0,4($fp)
 173              		.p2align 3
 174              	$L27:
 175 0048 0400C28F 		lw	$2,4($fp)
 176 004c 00014328 		slt	$3,$2,256
 177 0050 03006014 		bne	$3,$0,$L30
 177      00000000 
 178 0058 C1000010 		b	$L28
 178      00000000 
 179              		.p2align 2
 180              	$L30:
 181              	$LBB4:
 182              	$LM7:
 183              		.stabn 68,0,22,$LM7
 184              	$LBB5:
 185 0060 0400C28F 		lw	$2,4($fp)
 186 0064 58000324 		li	$3,88			# 0x58
GAS LISTING C:\DOCUME~1\Schmidt\LOCALS~1\Temp\ccKmaaaa.s 			page 5


 187 0068 18104300 		mult	$2,$2,$3
 188 006c 0000033C 		la	$3,nsl+22596
 188      44586324 
 189 0074 21106200 		addu	$2,$3,$2
 190 0078 0000438C 		lw	$3,0($2)
 191 007c B3006014 		bne	$3,$0,$L29
 191      00000000 
 192              	$LM8:
 193              		.stabn 68,0,23,$LM8
 194              	$LBB6:
 195              	$LM9:
 196              		.stabn 68,0,24,$LM9
 197 0084 0400C48F 		lw	$4,4($fp)
 198 0088 2D280000 		move	$5,$0
 199 008c 0000000C 		jal	_nslClearSoundSlot__FUib
 199      00000000 
 200              	$LM10:
 201              		.stabn 68,0,28,$LM10
 202 0094 0400C28F 		lw	$2,4($fp)
 203 0098 58000324 		li	$3,88			# 0x58
 204 009c 18104300 		mult	$2,$2,$3
 205 00a0 0000033C 		la	$3,nsl+22592
 205      40586324 
 206 00a8 21106200 		addu	$2,$3,$2
 207 00ac 0C00C2AF 		sw	$2,12($fp)
 208              	$LM11:
 209              		.stabn 68,0,29,$LM11
 210 00b0 0000C38F 		lw	$3,0($fp)
 211 00b4 FF036230 		andi	$2,$3,0x3ff
 212 00b8 58000324 		li	$3,88			# 0x58
 213 00bc 18104300 		mult	$2,$2,$3
 214 00c0 0000033C 		la	$3,nsl+64
 214      40006324 
 215 00c8 21106200 		addu	$2,$3,$2
 216 00cc 0800C2AF 		sw	$2,8($fp)
 217              	$LM12:
 218              		.stabn 68,0,31,$LM12
 219 00d0 0C00C28F 		lw	$2,12($fp)
 220 00d4 0C00C38F 		lw	$3,12($fp)
 221 00d8 3400648C 		lw	$4,52($3)
 222 00dc 00048324 		addu	$3,$4,1024
 223 00e0 340043AC 		sw	$3,52($2)
 224              	$LM13:
 225              		.stabn 68,0,32,$LM13
 226 00e4 0C00C28F 		lw	$2,12($fp)
 227 00e8 01000324 		li	$3,1			# 0x1
 228 00ec 080043AC 		sw	$3,8($2)
 229              	$LM14:
 230              		.stabn 68,0,33,$LM14
 231 00f0 0800C28F 		lw	$2,8($fp)
 232 00f4 3C00438C 		lw	$3,60($2)
 233 00f8 01286228 		slt	$2,$3,10241
 234 00fc 2C004014 		bne	$2,$0,$L32
 234      00000000 
 235              	$LM15:
 236              		.stabn 68,0,35,$LM15
 237 0104 0000C38F 		lw	$3,0($fp)
GAS LISTING C:\DOCUME~1\Schmidt\LOCALS~1\Temp\ccKmaaaa.s 			page 6


 238 0108 FF036230 		andi	$2,$3,0x3ff
 239 010c 58000324 		li	$3,88			# 0x58
 240 0110 18104300 		mult	$2,$2,$3
 241 0114 0000033C 		la	$3,nsl+132
 241      84006324 
 242 011c 21106200 		addu	$2,$3,$2
 243 0120 08000424 		li	$4,8			# 0x8
 244 0124 0000053C 		la	$5,$LC8
 244      2801A524 
 245 012c 0000468C 		lw	$6,0($2)
 246 0130 2D380000 		move	$7,$0
 247 0134 2D400000 		move	$8,$0
 248 0138 2D480000 		move	$9,$0
 249 013c 0000000C 		jal	nslPs2GasRpc__FiPCciiii
 249      00000000 
 250 0144 0C00C38F 		lw	$3,12($fp)
 251 0148 280062AC 		sw	$2,40($3)
 252              	$LM16:
 253              		.stabn 68,0,36,$LM16
 254 014c 0C00C28F 		lw	$2,12($fp)
 255 0150 2800438C 		lw	$3,40($2)
 256 0154 FFFF023C 		li	$2,4294901760			# 0xffff0000
 257 0158 FFFF4234 		ori	$2,$2,0xffff
 258 015c 06006214 		bne	$3,$2,$L33
 258      00000000 
 259              	$LM17:
 260              		.stabn 68,0,38,$LM17
 261 0164 0C00C28F 		lw	$2,12($fp)
 262 0168 080040AC 		sw	$0,8($2)
 263              	$LM18:
 264              		.stabn 68,0,39,$LM18
 265 016c 2D100000 		move	$2,$0
 266 0170 7E000010 		b	$L25
 266      00000000 
 267              		.p2align 2
 268              	$L33:
 269              	$LM19:
 270              		.stabn 68,0,41,$LM19
 271 0178 0C00C28F 		lw	$2,12($fp)
 272 017c 0400C38F 		lw	$3,4($fp)
 273 0180 58000424 		li	$4,88			# 0x58
 274 0184 18186400 		mult	$3,$3,$4
 275 0188 0000043C 		la	$4,nsl+22632
 275      68588424 
 276 0190 21188300 		addu	$3,$4,$3
 277 0194 0000648C 		lw	$4,0($3)
 278 0198 FFFF033C 		li	$3,4294901760			# 0xffff0000
 279 019c 7FFF6334 		ori	$3,$3,0xff7f
 280 01a0 24208300 		and	$4,$4,$3
 281 01a4 280044AC 		sw	$4,40($2)
 282 01a8 07000010 		b	$L34
 282      00000000 
 283              		.p2align 2
 284              	$L32:
 285              	$LM20:
 286              		.stabn 68,0,45,$LM20
 287 01b0 0C00C28F 		lw	$2,12($fp)
GAS LISTING C:\DOCUME~1\Schmidt\LOCALS~1\Temp\ccKmaaaa.s 			page 7


 288 01b4 080040AC 		sw	$0,8($2)
 289              	$LM21:
 290              		.stabn 68,0,46,$LM21
 291 01b8 0C00C28F 		lw	$2,12($fp)
 292 01bc FFFF033C 		li	$3,4294901760			# 0xffff0000
 293 01c0 FFFF6334 		ori	$3,$3,0xffff
 294 01c4 280043AC 		sw	$3,40($2)
 295              	$L34:
 296              	$LM22:
 297              		.stabn 68,0,49,$LM22
 298 01c8 0C00C28F 		lw	$2,12($fp)
 299 01cc 3C0040AC 		sw	$0,60($2)
 300              	$LM23:
 301              		.stabn 68,0,52,$LM23
 302 01d0 0C00C28F 		lw	$2,12($fp)
 303 01d4 0000C38F 		lw	$3,0($fp)
 304 01d8 380043AC 		sw	$3,56($2)
 305              	$LM24:
 306              		.stabn 68,0,53,$LM24
 307 01dc 0C00C28F 		lw	$2,12($fp)
 308 01e0 01000324 		li	$3,1			# 0x1
 309 01e4 040043AC 		sw	$3,4($2)
 310              	$LM25:
 311              		.stabn 68,0,54,$LM25
 312 01e8 0100023C 		lw	$2,nsl+61508
 312      44F0428C 
 313 01f0 01004324 		addu	$3,$2,1
 314 01f4 0100013C 		sw	$3,nsl+61508
 314      44F023AC 
 315              	$LM26:
 316              		.stabn 68,0,56,$LM26
 317 01fc 0C00C28F 		lw	$2,12($fp)
 318 0200 480040AC 		sw	$0,72($2)
 319              	$LM27:
 320              		.stabn 68,0,58,$LM27
 321 0204 0C00C28F 		lw	$2,12($fp)
 322 0208 0800C38F 		lw	$3,8($fp)
 323 020c 500060C4 		l.s	$f0,80($3)
 324 0210 500040E4 		s.s	$f0,80($2)
 325              	$LM28:
 326              		.stabn 68,0,59,$LM28
 327 0214 0C00C28F 		lw	$2,12($fp)
 328 0218 0800C38F 		lw	$3,8($fp)
 329 021c 540060C4 		l.s	$f0,84($3)
 330 0220 540040E4 		s.s	$f0,84($2)
 331              	$LM29:
 332              		.stabn 68,0,61,$LM29
 333 0224 0C00C28F 		lw	$2,12($fp)
 334 0228 803F013C 		li.s	$f0,1.00000000000000000000e0
 334      00008144 
 335 0230 440040E4 		s.s	$f0,68($2)
 336              	$LM30:
 337              		.stabn 68,0,62,$LM30
 338 0234 0C00C28F 		lw	$2,12($fp)
 339 0238 0800C38F 		lw	$3,8($fp)
 340 023c 480060C4 		l.s	$f0,72($3)
 341 0240 400040E4 		s.s	$f0,64($2)
GAS LISTING C:\DOCUME~1\Schmidt\LOCALS~1\Temp\ccKmaaaa.s 			page 8


 342              	$LM31:
 343              		.stabn 68,0,64,$LM31
 344 0244 0C00C28F 		lw	$2,12($fp)
 345 0248 0800C38F 		lw	$3,8($fp)
 346 024c 4C0060C4 		l.s	$f0,76($3)
 347 0250 4C0040E4 		s.s	$f0,76($2)
 348              	$LM32:
 349              		.stabn 68,0,65,$LM32
 350 0254 0C00C28F 		lw	$2,12($fp)
 351 0258 240040A4 		sh	$0,36($2)
 352              	$LM33:
 353              		.stabn 68,0,66,$LM33
 354 025c 0C00C28F 		lw	$2,12($fp)
 355 0260 260040A4 		sh	$0,38($2)
 356              	$LM34:
 357              		.stabn 68,0,71,$LM34
 358 0264 0C00C28F 		lw	$2,12($fp)
 359 0268 2C0040AC 		sw	$0,44($2)
 360              	$LM35:
 361              		.stabn 68,0,72,$LM35
 362 026c 0C00C28F 		lw	$2,12($fp)
 363 0270 300040AC 		sw	$0,48($2)
 364              	$LM36:
 365              		.stabn 68,0,76,$LM36
 366 0274 0C00C28F 		lw	$2,12($fp)
 367 0278 100040AC 		sw	$0,16($2)
 368              	$LM37:
 369              		.stabn 68,0,77,$LM37
 370 027c 0C00C28F 		lw	$2,12($fp)
 371 0280 140040AC 		sw	$0,20($2)
 372              	$LM38:
 373              		.stabn 68,0,78,$LM38
 374 0284 0C00C28F 		lw	$2,12($fp)
 375 0288 000040AC 		sw	$0,0($2)
 376              	$LM39:
 377              		.stabn 68,0,79,$LM39
 378 028c 0C00C28F 		lw	$2,12($fp)
 379 0290 01000324 		li	$3,1			# 0x1
 380 0294 1C0043AC 		sw	$3,28($2)
 381              	$LM40:
 382              		.stabn 68,0,80,$LM40
 383 0298 0C00C28F 		lw	$2,12($fp)
 384 029c 0800C38F 		lw	$3,8($fp)
 385 02a0 0400648C 		lw	$4,4($3)
 386 02a4 180044AC 		sw	$4,24($2)
 387              	$LM41:
 388              		.stabn 68,0,91,$LM41
 389 02a8 0C00C28F 		lw	$2,12($fp)
 390 02ac 4C004CC4 		l.s	$f12,76($2)
 391 02b0 0000000C 		jal	fptodp
 391      00000000 
 392 02b8 2D204000 		move	$4,$2
 393 02bc C0FF0534 		li.d	$5,1.00000000000000000000e0
 393      BC2B0500 
 394 02c4 0000000C 		jal	dpcmp
 394      00000000 
 395 02cc 1A004010 		beq	$2,$0,$L35
GAS LISTING C:\DOCUME~1\Schmidt\LOCALS~1\Temp\ccKmaaaa.s 			page 9


 395      00000000 
 396 02d4 0C00C28F 		lw	$2,12($fp)
 397 02d8 2800438C 		lw	$3,40($2)
 398 02dc FFFF023C 		li	$2,4294901760			# 0xffff0000
 399 02e0 FFFF4234 		ori	$2,$2,0xffff
 400 02e4 14006210 		beq	$3,$2,$L35
 400      00000000 
 401              	$LM42:
 402              		.stabn 68,0,96,$LM42
 403 02ec 0C00C28F 		lw	$2,12($fp)
 404 02f0 0C00C38F 		lw	$3,12($fp)
 405 02f4 4C0060C4 		l.s	$f0,76($3)
 406 02f8 0045013C 		li.s	$f1,2.04800000000000000000e3
 406      00088144 
 407 0300 02000146 		mul.s	$f0,$f0,$f1
 408 0304 64000046 		cvt.w.s $f1,$f0
 409 0308 00080344 		mfc1	$3,$f1
 410 030c 2D206000 		move	$4,$3
 411 0310 FF008330 		andi	$3,$4,0x00ff
 412 0314 0E100424 		li	$4,4110			# 0x100e
 413 0318 0000053C 		la	$5,$LC8
 413      2801A524 
 414 0320 2800468C 		lw	$6,40($2)
 415 0324 2D386000 		move	$7,$3
 416 0328 2D400000 		move	$8,$0
 417 032c 2D480000 		move	$9,$0
 418 0330 0000000C 		jal	nslPs2GasRpc__FiPCciiii
 418      00000000 
 419              	$L35:
 420              	$LM43:
 421              		.stabn 68,0,100,$LM43
 422 0338 0C00C28F 		lw	$2,12($fp)
 423 033c 3400438C 		lw	$3,52($2)
 424 0340 2D106000 		move	$2,$3
 425 0344 09000010 		b	$L25
 425      00000000 
 426              	$LBE6:
 427              		.p2align 2
 428              	$L31:
 429              	$LBE5:
 430              	$LBE4:
 431              	$LM44:
 432              		.stabn 68,0,102,$LM44
 433              	$L29:
 434 034c 0400C28F 		lw	$2,4($fp)
 435 0350 01004324 		addu	$3,$2,1
 436 0354 0400C3AF 		sw	$3,4($fp)
 437 0358 3BFF0010 		b	$L27
 437      00000000 
 438              		.p2align 2
 439              	$L28:
 440              	$LBE3:
 441              	$LM45:
 442              		.stabn 68,0,104,$LM45
 443 0360 2D100000 		move	$2,$0
 444 0364 01000010 		b	$L25
 444      00000000 
GAS LISTING C:\DOCUME~1\Schmidt\LOCALS~1\Temp\ccKmaaaa.s 			page 10


 445              	$LBE2:
 446              	$LM46:
 447              		.stabn 68,0,105,$LM46
 448              		.p2align 2
 449              	$L25:
 450 036c 2DE8C003 		move	$sp,$fp
 451 0370 2000BFDF 		ld	$31,32($sp)
 452 0374 1000BEDF 		ld	$fp,16($sp)
 453 0378 3000BD27 		addu	$sp,$sp,48
 454 037c 0800E003 		j	$31
 454      00000000 
 455              		.end	nslAddSound__FUi
 456              	$LFE1:
 457              	.stabs "nslAddSound__FUi:F42",36,0,15,nslAddSound__FUi
 458              	.stabs "soundSource:p41",160,0,15,-48
 459              	.stabn 192,0,0,$LBB2
 460              	.stabs "i:1",128,0,20,-44
 461              	.stabn 192,0,0,$LBB3
 462              	.stabn 192,0,0,$LBB4
 463              	.stabn 192,0,0,$LBB5
 464              	.stabs "src:227",128,0,26,-40
 465              	.stabs "snd:233",128,0,27,-36
 466              	.stabn 192,0,0,$LBB6
 467              	.stabn 224,0,0,$LBE6
 468              	.stabn 224,0,0,$LBE5
 469              	.stabn 224,0,0,$LBE4
 470              	.stabn 224,0,0,$LBE3
 471              	.stabn 224,0,0,$LBE2
 472              	$Lscope0:
 473              	.stabs "",36,0,0,$Lscope0-nslAddSound__FUi
 474              		.rdata
 475 0129 00000000 		.align	3
 475      000000
 476              	$LC9:
 477 0130 4641494C 		.ascii	"FAIL\000"
 477      00
 478 0135 000000   		.align	3
 479              	$LC10:
 480 0138 536F6D65 		.ascii	"Somehow we had an impossible case (NOT LOOPING, INVALID "
 480      686F7720 
 480      77652068 
 480      61642061 
 480      6E20696D 
 481 0170 49442041 		.ascii	"ID AND IN RANGE)\n\000"
 481      4E442049 
 481      4E205241 
 481      4E474529 
 481      0A00
 482 0182 00000000 		.align	3
 482      0000
 483              	$LC11:
 484 0188 494E5641 		.ascii	"INVALID ID FOR BIG SOUND OUT OF RANGE\000"
 484      4C494420 
 484      49442046 
 484      4F522042 
 484      49472053 
 485              		.text
GAS LISTING C:\DOCUME~1\Schmidt\LOCALS~1\Temp\ccKmaaaa.s 			page 11


 486 0384 00000000 		.p2align 3
 487              		.globl	nslPlaySound__FUi
 488              	$LFB2:
 489              	$LM47:
 490              		.stabn 68,0,112,$LM47
 491              	.stabs "nsl_ps2_sound.cpp",132,0,0,$Ltext0
 492              		.ent	nslPlaySound__FUi
 493              	nslPlaySound__FUi:
 494              		.frame	$fp,64,$31		# vars= 32, regs= 4/0, args= 0, extra= 0
 495              		.mask	0xc0000000,-16
 496              		.fmask	0x00000000,0
 497 0388 C0FFBD27 		subu	$sp,$sp,64
 498              	$LCFI4:
 499 038c 3000BFFF 		sd	$31,48($sp)
 500              	$LCFI5:
 501 0390 2000BEFF 		sd	$fp,32($sp)
 502              	$LCFI6:
 503 0394 2DF0A003 		move	$fp,$sp
 504              	$LCFI7:
 505 0398 0000C4AF 		sw	$4,0($fp)
 506              	$LM48:
 507              		.stabn 68,0,112,$LM48
 508              	$LBB7:
 509              	$LM49:
 510              		.stabn 68,0,124,$LM49
 511 039c 0100023C 		lw	$2,nsl+61560
 511      78F0428C 
 512 03a4 03004014 		bne	$2,$0,$L37
 512      00000000 
 513 03ac B9010010 		b	$L36
 513      00000000 
 514              		.p2align 2
 515              	$L37:
 516              	$LM50:
 517              		.stabn 68,0,125,$LM50
 518 03b4 0000000C 		jal	_nslInitialized__Fv
 518      00000000 
 519              	$LM51:
 520              		.stabn 68,0,126,$LM51
 521 03bc 0000C38F 		lw	$3,0($fp)
 522 03c0 FF036230 		andi	$2,$3,0x3ff
 523 03c4 58000324 		li	$3,88			# 0x58
 524 03c8 18104300 		mult	$2,$2,$3
 525 03cc 0000033C 		la	$3,nsl+22648
 525      78586324 
 526 03d4 21106200 		addu	$2,$3,$2
 527 03d8 0000448C 		lw	$4,0($2)
 528 03dc 0000000C 		jal	_nslCheckSourceIdValidity__FUi
 528      00000000 
 529              	$LM52:
 530              		.stabn 68,0,129,$LM52
 531 03e4 0000C48F 		lw	$4,0($fp)
 532 03e8 0000000C 		jal	_nslCheckSoundIdValidity__FUi
 532      00000000 
 533              	$LM53:
 534              		.stabn 68,0,132,$LM53
 535 03f0 0000C38F 		lw	$3,0($fp)
GAS LISTING C:\DOCUME~1\Schmidt\LOCALS~1\Temp\ccKmaaaa.s 			page 12


 536 03f4 FF036230 		andi	$2,$3,0x3ff
 537 03f8 58000324 		li	$3,88			# 0x58
 538 03fc 18104300 		mult	$2,$2,$3
 539 0400 0000033C 		la	$3,nsl+22592
 539      40586324 
 540 0408 21106200 		addu	$2,$3,$2
 541 040c 0400C2AF 		sw	$2,4($fp)
 542              	$LM54:
 543              		.stabn 68,0,135,$LM54
 544 0410 0400C28F 		lw	$2,4($fp)
 545 0414 01000324 		li	$3,1			# 0x1
 546 0418 100043AC 		sw	$3,16($2)
 547              	$LM55:
 548              		.stabn 68,0,136,$LM55
 549 041c 0400C28F 		lw	$2,4($fp)
 550 0420 2C0040AC 		sw	$0,44($2)
 551              	$LM56:
 552              		.stabn 68,0,149,$LM56
 553 0424 0400C28F 		lw	$2,4($fp)
 554 0428 0C00438C 		lw	$3,12($2)
 555 042c 20006014 		bne	$3,$0,$L38
 555      00000000 
 556 0434 0400C28F 		lw	$2,4($fp)
 557 0438 3800438C 		lw	$3,56($2)
 558 043c FF036230 		andi	$2,$3,0x3ff
 559 0440 58000324 		li	$3,88			# 0x58
 560 0444 18104300 		mult	$2,$2,$3
 561 0448 0000033C 		la	$3,nsl+124
 561      7C006324 
 562 0450 21106200 		addu	$2,$3,$2
 563 0454 0000438C 		lw	$3,0($2)
 564 0458 01286228 		slt	$2,$3,10241
 565 045c 0D004010 		beq	$2,$0,$L39
 565      00000000 
 566 0464 0400C28F 		lw	$2,4($fp)
 567 0468 2800438C 		lw	$3,40($2)
 568 046c FFFF023C 		li	$2,4294901760			# 0xffff0000
 569 0470 FFFF4234 		ori	$2,$2,0xffff
 570 0474 07006214 		bne	$3,$2,$L39
 570      00000000 
 571 047c 0400C28F 		lw	$2,4($fp)
 572 0480 1800438C 		lw	$3,24($2)
 573 0484 03006014 		bne	$3,$0,$L39
 573      00000000 
 574 048c 08000010 		b	$L38
 574      00000000 
 575              		.p2align 2
 576              	$L39:
 577              	$LM57:
 578              		.stabn 68,0,154,$LM57
 579 0494 0100043C 		la	$4,nsl+61520
 579      50F08424 
 580 049c 2D28C003 		move	$5,$fp
 581 04a0 0000000C 		jal	push__t10fifo_queue1ZUiRCUi
 581      00000000 
 582              	$LM58:
 583              		.stabn 68,0,155,$LM58
GAS LISTING C:\DOCUME~1\Schmidt\LOCALS~1\Temp\ccKmaaaa.s 			page 13


 584 04a8 7A010010 		b	$L36
 584      00000000 
 585              		.p2align 2
 586              	$L38:
 587              	$LM59:
 588              		.stabn 68,0,161,$LM59
 589              	$LBB8:
 590 04b0 0400C28F 		lw	$2,4($fp)
 591 04b4 3C00438C 		lw	$3,60($2)
 592 04b8 B5006014 		bne	$3,$0,$L40
 592      00000000 
 593              	$LM60:
 594              		.stabn 68,0,162,$LM60
 595              	$LBB9:
 596              	$LM61:
 597              		.stabn 68,0,163,$LM61
 598 04c0 0400C28F 		lw	$2,4($fp)
 599 04c4 803F013C 		li.s	$f0,1.00000000000000000000e0
 599      00008144 
 600 04cc 440040E4 		s.s	$f0,68($2)
 601              	$LM62:
 602              		.stabn 68,0,164,$LM62
 603 04d0 0400C28F 		lw	$2,4($fp)
 604 04d4 480040AC 		sw	$0,72($2)
 605              	$LM63:
 606              		.stabn 68,0,166,$LM63
 607 04d8 803F013C 		li.s	$f0,1.00000000000000000000e0
 607      00008144 
 608 04e0 0800C0E7 		s.s	$f0,8($fp)
 609              	$LM64:
 610              		.stabn 68,0,167,$LM64
 611 04e4 0400C28F 		lw	$2,4($fp)
 612 04e8 3800438C 		lw	$3,56($2)
 613 04ec FF036230 		andi	$2,$3,0x3ff
 614 04f0 58000324 		li	$3,88			# 0x58
 615 04f4 18104300 		mult	$2,$2,$3
 616 04f8 0000033C 		la	$3,nsl+128
 616      80006324 
 617 0500 21106200 		addu	$2,$3,$2
 618 0504 0000438C 		lw	$3,0($2)
 619 0508 0700642C 		sltu	$4,$3,7
 620 050c 2D008010 		beq	$4,$0,$L49
 620      00000000 
 621 0514 0000428C 		lw	$2,0($2)
 622 0518 2D184000 		move	$3,$2
 623 051c 80100300 		sll	$2,$3,2
 624 0520 0000033C 		la	$3,$L50
 624      B0016324 
 625 0528 21104300 		addu	$2,$2,$3
 626 052c 0000438C 		lw	$3,0($2)
 627 0530 08006000 		j	$3
 627      00000000 
 628              		.p2align 2
 629              		.rdata
 630 01ae 0000     		.align	4
 631              	$L50:
 632 01b0 38050000 		.word	$L42
GAS LISTING C:\DOCUME~1\Schmidt\LOCALS~1\Temp\ccKmaaaa.s 			page 14


 633 01b4 4C050000 		.word	$L43
 634 01b8 60050000 		.word	$L44
 635 01bc 74050000 		.word	$L45
 636 01c0 88050000 		.word	$L46
 637 01c4 9C050000 		.word	$L47
 638 01c8 B0050000 		.word	$L48
 639              		.text
 640              		.p2align 2
 641              	$L42:
 642              	$LM65:
 643              		.stabn 68,0,168,$LM65
 644 0538 0100013C 		l.s	$f0,nsl+61572
 644      84F020C4 
 645 0540 0800C0E7 		s.s	$f0,8($fp)
 646 0544 25000010 		b	$L41
 646      00000000 
 647              		.p2align 2
 648              	$L43:
 649              	$LM66:
 650              		.stabn 68,0,169,$LM66
 651 054c 0100013C 		l.s	$f0,nsl+61576
 651      88F020C4 
 652 0554 0800C0E7 		s.s	$f0,8($fp)
 653 0558 20000010 		b	$L41
 653      00000000 
 654              		.p2align 2
 655              	$L44:
 656              	$LM67:
 657              		.stabn 68,0,170,$LM67
 658 0560 0100013C 		l.s	$f0,nsl+61580
 658      8CF020C4 
 659 0568 0800C0E7 		s.s	$f0,8($fp)
 660 056c 1B000010 		b	$L41
 660      00000000 
 661              		.p2align 2
 662              	$L45:
 663              	$LM68:
 664              		.stabn 68,0,171,$LM68
 665 0574 0100013C 		l.s	$f0,nsl+61584
 665      90F020C4 
 666 057c 0800C0E7 		s.s	$f0,8($fp)
 667 0580 16000010 		b	$L41
 667      00000000 
 668              		.p2align 2
 669              	$L46:
 670              	$LM69:
 671              		.stabn 68,0,172,$LM69
 672 0588 0100013C 		l.s	$f0,nsl+61588
 672      94F020C4 
 673 0590 0800C0E7 		s.s	$f0,8($fp)
 674 0594 11000010 		b	$L41
 674      00000000 
 675              		.p2align 2
 676              	$L47:
 677              	$LM70:
 678              		.stabn 68,0,173,$LM70
 679 059c 0100013C 		l.s	$f0,nsl+61592
GAS LISTING C:\DOCUME~1\Schmidt\LOCALS~1\Temp\ccKmaaaa.s 			page 15


 679      98F020C4 
 680 05a4 0800C0E7 		s.s	$f0,8($fp)
 681 05a8 0C000010 		b	$L41
 681      00000000 
 682              		.p2align 2
 683              	$L48:
 684              	$LM71:
 685              		.stabn 68,0,174,$LM71
 686 05b0 0100013C 		l.s	$f0,nsl+61596
 686      9CF020C4 
 687 05b8 0800C0E7 		s.s	$f0,8($fp)
 688 05bc 07000010 		b	$L41
 688      00000000 
 689              		.p2align 2
 690              	$L49:
 691              	$LM72:
 692              		.stabn 68,0,176,$LM72
 693 05c4 0000043C 		la	$4,$LC9
 693      30018424 
 694 05cc 0000000C 		jal	nslFatal__FPCce
 694      00000000 
 695 05d4 01000010 		b	$L41
 695      00000000 
 696              		.p2align 2
 697              	$L41:
 698              	$LM73:
 699              		.stabn 68,0,193,$LM73
 700 05dc 0400C28F 		lw	$2,4($fp)
 701 05e0 0100013C 		l.s	$f0,nsl+61600
 701      A0F020C4 
 702 05e8 400041C4 		l.s	$f1,64($2)
 703 05ec 02000146 		mul.s	$f0,$f0,$f1
 704 05f0 0800C1C7 		l.s	$f1,8($fp)
 705 05f4 02000146 		mul.s	$f0,$f0,$f1
 706 05f8 0C00C0E7 		s.s	$f0,12($fp)
 707              	$LM74:
 708              		.stabn 68,0,198,$LM74
 709 05fc 0400C28F 		lw	$2,4($fp)
 710 0600 0100013C 		l.s	$f0,nsl+61600
 710      A0F020C4 
 711 0608 400041C4 		l.s	$f1,64($2)
 712 060c 02000146 		mul.s	$f0,$f0,$f1
 713 0610 0800C1C7 		l.s	$f1,8($fp)
 714 0614 02000146 		mul.s	$f0,$f0,$f1
 715 0618 1000C0E7 		s.s	$f0,16($fp)
 716              	$LM75:
 717              		.stabn 68,0,202,$LM75
 718 061c 0100023C 		lw	$2,nsl+61532
 718      5CF0428C 
 719 0624 01000324 		li	$3,1			# 0x1
 720 0628 03004314 		bne	$2,$3,$L51
 720      00000000 
 721              	$LM76:
 722              		.stabn 68,0,203,$LM76
 723 0630 0C00C0C7 		l.s	$f0,12($fp)
 724 0634 1000C0E7 		s.s	$f0,16($fp)
 725              	$L51:
GAS LISTING C:\DOCUME~1\Schmidt\LOCALS~1\Temp\ccKmaaaa.s 			page 16


 726              	$LM77:
 727              		.stabn 68,0,219,$LM77
 728 0638 0400C28F 		lw	$2,4($fp)
 729 063c 3800438C 		lw	$3,56($2)
 730 0640 FF036230 		andi	$2,$3,0x3ff
 731 0644 58000324 		li	$3,88			# 0x58
 732 0648 18104300 		mult	$2,$2,$3
 733 064c 0000033C 		la	$3,nsl+124
 733      7C006324 
 734 0654 21106200 		addu	$2,$3,$2
 735 0658 0000438C 		lw	$3,0($2)
 736 065c 01286228 		slt	$2,$3,10241
 737 0660 30004010 		beq	$2,$0,$L52
 737      00000000 
 738 0668 0400C28F 		lw	$2,4($fp)
 739 066c 2800438C 		lw	$3,40($2)
 740 0670 FFFF023C 		li	$2,4294901760			# 0xffff0000
 741 0674 FFFF4234 		ori	$2,$2,0xffff
 742 0678 2A006214 		bne	$3,$2,$L52
 742      00000000 
 743 0680 0400C28F 		lw	$2,4($fp)
 744 0684 1800438C 		lw	$3,24($2)
 745 0688 26006014 		bne	$3,$0,$L52
 745      00000000 
 746              	$LM78:
 747              		.stabn 68,0,222,$LM78
 748 0690 0400C28F 		lw	$2,4($fp)
 749 0694 3800438C 		lw	$3,56($2)
 750 0698 FF036230 		andi	$2,$3,0x3ff
 751 069c 58000324 		li	$3,88			# 0x58
 752 06a0 18104300 		mult	$2,$2,$3
 753 06a4 0000033C 		la	$3,nsl+132
 753      84006324 
 754 06ac 21106200 		addu	$2,$3,$2
 755 06b0 08000424 		li	$4,8			# 0x8
 756 06b4 0000053C 		la	$5,$LC8
 756      2801A524 
 757 06bc 0000468C 		lw	$6,0($2)
 758 06c0 2D380000 		move	$7,$0
 759 06c4 2D400000 		move	$8,$0
 760 06c8 2D480000 		move	$9,$0
 761 06cc 0000000C 		jal	nslPs2GasRpc__FiPCciiii
 761      00000000 
 762 06d4 0400C38F 		lw	$3,4($fp)
 763 06d8 280062AC 		sw	$2,40($3)
 764              	$LM79:
 765              		.stabn 68,0,224,$LM79
 766 06dc 0400C28F 		lw	$2,4($fp)
 767 06e0 2800438C 		lw	$3,40($2)
 768 06e4 FFFF023C 		li	$2,4294901760			# 0xffff0000
 769 06e8 FFFF4234 		ori	$2,$2,0xffff
 770 06ec 07006214 		bne	$3,$2,$L53
 770      00000000 
 771              	$LM80:
 772              		.stabn 68,0,226,$LM80
 773 06f4 0400C28F 		lw	$2,4($fp)
 774 06f8 3400448C 		lw	$4,52($2)
GAS LISTING C:\DOCUME~1\Schmidt\LOCALS~1\Temp\ccKmaaaa.s 			page 17


 775 06fc D602000C 		jal	nslStopSound__FUi
 775      00000000 
 776              	$LM81:
 777              		.stabn 68,0,227,$LM81
 778 0704 E3000010 		b	$L36
 778      00000000 
 779              		.p2align 2
 780              	$L53:
 781              	$LM82:
 782              		.stabn 68,0,231,$LM82
 783 070c 0400C28F 		lw	$2,4($fp)
 784 0710 3400448C 		lw	$4,52($2)
 785 0714 E200000C 		jal	nslPlaySound__FUi
 785      00000000 
 786 071c 1A000010 		b	$L54
 786      00000000 
 787              		.p2align 2
 788              	$L52:
 789              	$LM83:
 790              		.stabn 68,0,236,$LM83
 791 0724 0400C28F 		lw	$2,4($fp)
 792 0728 01000324 		li	$3,1			# 0x1
 793 072c 140043AC 		sw	$3,20($2)
 794              	$LM84:
 795              		.stabn 68,0,240,$LM84
 796 0730 0400C28F 		lw	$2,4($fp)
 797 0734 0C00C0C7 		l.s	$f0,12($fp)
 798 0738 7F46013C 		li.s	$f1,1.63830000000000000000e4
 798      00FC2134 
 798      00088144 
 799 0744 02000146 		mul.s	$f0,$f0,$f1
 800 0748 64000046 		cvt.w.s $f1,$f0
 801 074c 00080344 		mfc1	$3,$f1
 802 0750 1000C0C7 		l.s	$f0,16($fp)
 803 0754 7F46013C 		li.s	$f1,1.63830000000000000000e4
 803      00FC2134 
 803      00088144 
 804 0760 02000146 		mul.s	$f0,$f0,$f1
 805 0764 64000046 		cvt.w.s $f1,$f0
 806 0768 00080844 		mfc1	$8,$f1
 807 076c 09100424 		li	$4,4105			# 0x1009
 808 0770 2D280000 		move	$5,$0
 809 0774 2800468C 		lw	$6,40($2)
 810 0778 2D386000 		move	$7,$3
 811 077c 2D480000 		move	$9,$0
 812 0780 0000000C 		jal	nslPs2GasRpc__FiPCciiii
 812      00000000 
 813              	$L54:
 814              	$LBE9:
 815 0788 BE000010 		b	$L55
 815      00000000 
 816              		.p2align 2
 817              	$L40:
 818              	$LM85:
 819              		.stabn 68,0,250,$LM85
 820 0790 0000C48F 		lw	$4,0($fp)
 821 0794 7807000C 		jal	_set3dVolume__FUi
GAS LISTING C:\DOCUME~1\Schmidt\LOCALS~1\Temp\ccKmaaaa.s 			page 18


 821      00000000 
 822 079c 0400C38F 		lw	$3,4($fp)
 823 07a0 080062AC 		sw	$2,8($3)
 824              	$LM86:
 825              		.stabn 68,0,253,$LM86
 826 07a4 0400C28F 		lw	$2,4($fp)
 827 07a8 1800438C 		lw	$3,24($2)
 828 07ac 2D006010 		beq	$3,$0,$L56
 828      00000000 
 829              	$LM87:
 830              		.stabn 68,0,256,$LM87
 831 07b4 0400C28F 		lw	$2,4($fp)
 832 07b8 0800438C 		lw	$3,8($2)
 833 07bc 12006010 		beq	$3,$0,$L57
 833      00000000 
 834              	$LM88:
 835              		.stabn 68,0,259,$LM88
 836 07c4 0400C28F 		lw	$2,4($fp)
 837 07c8 01000324 		li	$3,1			# 0x1
 838 07cc 140043AC 		sw	$3,20($2)
 839              	$LM89:
 840              		.stabn 68,0,263,$LM89
 841 07d0 0400C28F 		lw	$2,4($fp)
 842 07d4 0400C48F 		lw	$4,4($fp)
 843 07d8 20008384 		lh	$3,32($4)
 844 07dc 0400C48F 		lw	$4,4($fp)
 845 07e0 22008884 		lh	$8,34($4)
 846 07e4 09100424 		li	$4,4105			# 0x1009
 847 07e8 2D280000 		move	$5,$0
 848 07ec 2800468C 		lw	$6,40($2)
 849 07f0 2D386000 		move	$7,$3
 850 07f4 2D480000 		move	$9,$0
 851 07f8 0000000C 		jal	nslPs2GasRpc__FiPCciiii
 851      00000000 
 852 0800 16000010 		b	$L58
 852      00000000 
 853              		.p2align 2
 854              	$L57:
 855              	$LM90:
 856              		.stabn 68,0,271,$LM90
 857 0808 0400C28F 		lw	$2,4($fp)
 858 080c 2800438C 		lw	$3,40($2)
 859 0810 FFFF023C 		li	$2,4294901760			# 0xffff0000
 860 0814 FFFF4234 		ori	$2,$2,0xffff
 861 0818 0A006210 		beq	$3,$2,$L59
 861      00000000 
 862              	$LM91:
 863              		.stabn 68,0,272,$LM91
 864 0820 0400C28F 		lw	$2,4($fp)
 865 0824 B0100424 		li	$4,4272			# 0x10b0
 866 0828 2D280000 		move	$5,$0
 867 082c 2800468C 		lw	$6,40($2)
 868 0830 2D380000 		move	$7,$0
 869 0834 2D400000 		move	$8,$0
 870 0838 2D480000 		move	$9,$0
 871 083c 0000000C 		jal	nslPs2GasRpc__FiPCciiii
 871      00000000 
GAS LISTING C:\DOCUME~1\Schmidt\LOCALS~1\Temp\ccKmaaaa.s 			page 19


 872              	$L59:
 873              	$LM92:
 874              		.stabn 68,0,274,$LM92
 875 0844 0400C28F 		lw	$2,4($fp)
 876 0848 140040AC 		sw	$0,20($2)
 877              	$LM93:
 878              		.stabn 68,0,275,$LM93
 879 084c 0400C28F 		lw	$2,4($fp)
 880 0850 FFFF033C 		li	$3,4294901760			# 0xffff0000
 881 0854 FFFF6334 		ori	$3,$3,0xffff
 882 0858 280043AC 		sw	$3,40($2)
 883              	$L58:
 884 085c 89000010 		b	$L55
 884      00000000 
 885              		.p2align 2
 886              	$L56:
 887              	$LM94:
 888              		.stabn 68,0,284,$LM94
 889 0864 0400C28F 		lw	$2,4($fp)
 890 0868 0800438C 		lw	$3,8($2)
 891 086c 55006010 		beq	$3,$0,$L61
 891      00000000 
 892              	$LM95:
 893              		.stabn 68,0,288,$LM95
 894 0874 0400C28F 		lw	$2,4($fp)
 895 0878 3800438C 		lw	$3,56($2)
 896 087c FF036230 		andi	$2,$3,0x3ff
 897 0880 58000324 		li	$3,88			# 0x58
 898 0884 18104300 		mult	$2,$2,$3
 899 0888 0000033C 		la	$3,nsl+124
 899      7C006324 
 900 0890 21106200 		addu	$2,$3,$2
 901 0894 0000438C 		lw	$3,0($2)
 902 0898 01286228 		slt	$2,$3,10241
 903 089c 2C004010 		beq	$2,$0,$L62
 903      00000000 
 904 08a4 0400C28F 		lw	$2,4($fp)
 905 08a8 2800438C 		lw	$3,40($2)
 906 08ac FFFF023C 		li	$2,4294901760			# 0xffff0000
 907 08b0 FFFF4234 		ori	$2,$2,0xffff
 908 08b4 26006214 		bne	$3,$2,$L62
 908      00000000 
 909              	$LM96:
 910              		.stabn 68,0,293,$LM96
 911 08bc 0400C28F 		lw	$2,4($fp)
 912 08c0 3800438C 		lw	$3,56($2)
 913 08c4 FF036230 		andi	$2,$3,0x3ff
 914 08c8 58000324 		li	$3,88			# 0x58
 915 08cc 18104300 		mult	$2,$2,$3
 916 08d0 0000033C 		la	$3,nsl+132
 916      84006324 
 917 08d8 21106200 		addu	$2,$3,$2
 918 08dc 08000424 		li	$4,8			# 0x8
 919 08e0 0000053C 		la	$5,$LC8
 919      2801A524 
 920 08e8 0000468C 		lw	$6,0($2)
 921 08ec 2D380000 		move	$7,$0
GAS LISTING C:\DOCUME~1\Schmidt\LOCALS~1\Temp\ccKmaaaa.s 			page 20


 922 08f0 2D400000 		move	$8,$0
 923 08f4 2D480000 		move	$9,$0
 924 08f8 0000000C 		jal	nslPs2GasRpc__FiPCciiii
 924      00000000 
 925 0900 0400C38F 		lw	$3,4($fp)
 926 0904 280062AC 		sw	$2,40($3)
 927              	$LM97:
 928              		.stabn 68,0,295,$LM97
 929 0908 0400C28F 		lw	$2,4($fp)
 930 090c 2800438C 		lw	$3,40($2)
 931 0910 FFFF023C 		li	$2,4294901760			# 0xffff0000
 932 0914 FFFF4234 		ori	$2,$2,0xffff
 933 0918 07006210 		beq	$3,$2,$L63
 933      00000000 
 934              	$LM98:
 935              		.stabn 68,0,296,$LM98
 936 0920 0400C28F 		lw	$2,4($fp)
 937 0924 3400448C 		lw	$4,52($2)
 938 0928 E200000C 		jal	nslPlaySound__FUi
 938      00000000 
 939 0930 05000010 		b	$L64
 939      00000000 
 940              		.p2align 2
 941              	$L63:
 942              	$LM99:
 943              		.stabn 68,0,303,$LM99
 944 0938 0400C28F 		lw	$2,4($fp)
 945 093c 3400448C 		lw	$4,52($2)
 946 0940 D602000C 		jal	nslStopSound__FUi
 946      00000000 
 947              	$L64:
 948 0948 1C000010 		b	$L65
 948      00000000 
 949              		.p2align 2
 950              	$L62:
 951              	$LM100:
 952              		.stabn 68,0,308,$LM100
 953 0950 0400C28F 		lw	$2,4($fp)
 954 0954 2800438C 		lw	$3,40($2)
 955 0958 FFFF023C 		li	$2,4294901760			# 0xffff0000
 956 095c FFFF4234 		ori	$2,$2,0xffff
 957 0960 12006210 		beq	$3,$2,$L66
 957      00000000 
 958              	$LM101:
 959              		.stabn 68,0,310,$LM101
 960 0968 0400C28F 		lw	$2,4($fp)
 961 096c 01000324 		li	$3,1			# 0x1
 962 0970 140043AC 		sw	$3,20($2)
 963              	$LM102:
 964              		.stabn 68,0,314,$LM102
 965 0974 0400C28F 		lw	$2,4($fp)
 966 0978 0400C48F 		lw	$4,4($fp)
 967 097c 20008384 		lh	$3,32($4)
 968 0980 0400C48F 		lw	$4,4($fp)
 969 0984 22008884 		lh	$8,34($4)
 970 0988 09100424 		li	$4,4105			# 0x1009
 971 098c 2D280000 		move	$5,$0
GAS LISTING C:\DOCUME~1\Schmidt\LOCALS~1\Temp\ccKmaaaa.s 			page 21


 972 0990 2800468C 		lw	$6,40($2)
 973 0994 2D386000 		move	$7,$3
 974 0998 2D480000 		move	$9,$0
 975 099c 0000000C 		jal	nslPs2GasRpc__FiPCciiii
 975      00000000 
 976 09a4 05000010 		b	$L65
 976      00000000 
 977              		.p2align 2
 978              	$L66:
 979              	$LM103:
 980              		.stabn 68,0,318,$LM103
 981 09ac 0000043C 		la	$4,$LC10
 981      38018424 
 982 09b4 0000000C 		jal	nslFatal__FPCce
 982      00000000 
 983              	$L67:
 984              	$L65:
 985 09bc 31000010 		b	$L55
 985      00000000 
 986              		.p2align 2
 987              	$L61:
 988              	$LM104:
 989              		.stabn 68,0,324,$LM104
 990 09c4 0400C28F 		lw	$2,4($fp)
 991 09c8 3800438C 		lw	$3,56($2)
 992 09cc FF036230 		andi	$2,$3,0x3ff
 993 09d0 58000324 		li	$3,88			# 0x58
 994 09d4 18104300 		mult	$2,$2,$3
 995 09d8 0000033C 		la	$3,nsl+124
 995      7C006324 
 996 09e0 21106200 		addu	$2,$3,$2
 997 09e4 0000438C 		lw	$3,0($2)
 998 09e8 01286228 		slt	$2,$3,10241
 999 09ec 21004014 		bne	$2,$0,$L69
 999      00000000 
 1000              	$LM105:
 1001              		.stabn 68,0,326,$LM105
 1002 09f4 0400C28F 		lw	$2,4($fp)
 1003 09f8 2800438C 		lw	$3,40($2)
 1004 09fc FFFF023C 		li	$2,4294901760			# 0xffff0000
 1005 0a00 FFFF4234 		ori	$2,$2,0xffff
 1006 0a04 15006210 		beq	$3,$2,$L70
 1006      00000000 
 1007              	$LM106:
 1008              		.stabn 68,0,328,$LM106
 1009 0a0c 0400C28F 		lw	$2,4($fp)
 1010 0a10 01000324 		li	$3,1			# 0x1
 1011 0a14 140043AC 		sw	$3,20($2)
 1012              	$LM107:
 1013              		.stabn 68,0,329,$LM107
 1014 0a18 0400C28F 		lw	$2,4($fp)
 1015 0a1c 01000324 		li	$3,1			# 0x1
 1016 0a20 080043AC 		sw	$3,8($2)
 1017              	$LM108:
 1018              		.stabn 68,0,333,$LM108
 1019 0a24 0400C28F 		lw	$2,4($fp)
 1020 0a28 0400C48F 		lw	$4,4($fp)
GAS LISTING C:\DOCUME~1\Schmidt\LOCALS~1\Temp\ccKmaaaa.s 			page 22


 1021 0a2c 20008384 		lh	$3,32($4)
 1022 0a30 0400C48F 		lw	$4,4($fp)
 1023 0a34 22008884 		lh	$8,34($4)
 1024 0a38 09100424 		li	$4,4105			# 0x1009
 1025 0a3c 2D280000 		move	$5,$0
 1026 0a40 2800468C 		lw	$6,40($2)
 1027 0a44 2D386000 		move	$7,$3
 1028 0a48 2D480000 		move	$9,$0
 1029 0a4c 0000000C 		jal	nslPs2GasRpc__FiPCciiii
 1029      00000000 
 1030 0a54 05000010 		b	$L71
 1030      00000000 
 1031              		.p2align 2
 1032              	$L70:
 1033              	$LM109:
 1034              		.stabn 68,0,337,$LM109
 1035 0a5c 0000043C 		la	$4,$LC11
 1035      88018424 
 1036 0a64 0000000C 		jal	nslFatal__FPCce
 1036      00000000 
 1037              	$L71:
 1038 0a6c 05000010 		b	$L55
 1038      00000000 
 1039              		.p2align 2
 1040              	$L69:
 1041              	$LM110:
 1042              		.stabn 68,0,342,$LM110
 1043 0a74 0400C28F 		lw	$2,4($fp)
 1044 0a78 3400448C 		lw	$4,52($2)
 1045 0a7c D602000C 		jal	nslStopSound__FUi
 1045      00000000 
 1046              	$L72:
 1047              	$L68:
 1048              	$L60:
 1049              	$L55:
 1050              	$LBE8:
 1051              	$LBE7:
 1052 0a84 03000010 		b	$L73
 1052      00000000 
 1053 0a8c 01000010 		b	$L36
 1053      00000000 
 1054              		.p2align 2
 1055              	$L73:
 1056              	$LM111:
 1057              		.stabn 68,0,347,$LM111
 1058              	$L36:
 1059 0a94 2DE8C003 		move	$sp,$fp
 1060 0a98 3000BFDF 		ld	$31,48($sp)
 1061 0a9c 2000BEDF 		ld	$fp,32($sp)
 1062 0aa0 4000BD27 		addu	$sp,$sp,64
 1063 0aa4 0800E003 		j	$31
 1063      00000000 
 1064              		.end	nslPlaySound__FUi
 1065              	$LFE2:
 1066              	.stabs "nslPlaySound__FUi:F22",36,0,112,nslPlaySound__FUi
 1067              	.stabs "soundToPlay:p42",160,0,112,-64
 1068              	.stabs "snd:233",128,0,130,-60
GAS LISTING C:\DOCUME~1\Schmidt\LOCALS~1\Temp\ccKmaaaa.s 			page 23


 1069              	.stabn 192,0,0,$LBB7
 1070              	.stabn 192,0,0,$LBB8
 1071              	.stabs "volumeModifier:14",128,0,166,-56
 1072              	.stabs "left:14",128,0,193,-52
 1073              	.stabs "right:14",128,0,198,-48
 1074              	.stabn 192,0,0,$LBB9
 1075              	.stabn 224,0,0,$LBE9
 1076              	.stabn 224,0,0,$LBE8
 1077              	.stabn 224,0,0,$LBE7
 1078              	$Lscope1:
 1079              	.stabs "",36,0,0,$Lscope1-nslPlaySound__FUi
 1080 0aac 00000000 		.p2align 3
 1081              		.globl	nslPlaySound3D__FUiRA2_Cf
 1082              	$LFB3:
 1083              	$LM112:
 1084              		.stabn 68,0,354,$LM112
 1085              	.stabs "nsl_ps2_sound.cpp",132,0,0,$Ltext0
 1086              		.ent	nslPlaySound3D__FUiRA2_Cf
 1087              	nslPlaySound3D__FUiRA2_Cf:
 1088              		.frame	$fp,48,$31		# vars= 16, regs= 4/0, args= 0, extra= 0
 1089              		.mask	0xc0000000,-16
 1090              		.fmask	0x00000000,0
 1091 0ab0 D0FFBD27 		subu	$sp,$sp,48
 1092              	$LCFI8:
 1093 0ab4 2000BFFF 		sd	$31,32($sp)
 1094              	$LCFI9:
 1095 0ab8 1000BEFF 		sd	$fp,16($sp)
 1096              	$LCFI10:
 1097 0abc 2DF0A003 		move	$fp,$sp
 1098              	$LCFI11:
 1099 0ac0 0000C4AF 		sw	$4,0($fp)
 1100 0ac4 0400C5AF 		sw	$5,4($fp)
 1101              	$LM113:
 1102              		.stabn 68,0,354,$LM113
 1103              	$LBB10:
 1104              	$LM114:
 1105              		.stabn 68,0,355,$LM114
 1106 0ac8 0100023C 		lw	$2,nsl+61560
 1106      78F0428C 
 1107 0ad0 03004014 		bne	$2,$0,$L75
 1107      00000000 
 1108 0ad8 18000010 		b	$L74
 1108      00000000 
 1109              		.p2align 2
 1110              	$L75:
 1111              	$LM115:
 1112              		.stabn 68,0,356,$LM115
 1113 0ae0 0000000C 		jal	_nslInitialized__Fv
 1113      00000000 
 1114              	$LM116:
 1115              		.stabn 68,0,358,$LM116
 1116 0ae8 0000C48F 		lw	$4,0($fp)
 1117 0aec 0000000C 		jal	_nslCheckSoundIdValidity__FUi
 1117      00000000 
 1118              	$LM117:
 1119              		.stabn 68,0,359,$LM117
 1120 0af4 0400C48F 		lw	$4,4($fp)
GAS LISTING C:\DOCUME~1\Schmidt\LOCALS~1\Temp\ccKmaaaa.s 			page 24


 1121 0af8 0000000C 		jal	nslCreateEmitter__FRA2_Cf
 1121      00000000 
 1122 0b00 0800C2AF 		sw	$2,8($fp)
 1123              	$LM118:
 1124              		.stabn 68,0,360,$LM118
 1125 0b04 0800C48F 		lw	$4,8($fp)
 1126 0b08 0000000C 		jal	nslSetEmitterAutoRelease__FUi
 1126      00000000 
 1127              	$LM119:
 1128              		.stabn 68,0,361,$LM119
 1129 0b10 0800C48F 		lw	$4,8($fp)
 1130 0b14 0000C58F 		lw	$5,0($fp)
 1131 0b18 0000000C 		jal	nslSetSoundEmitter__FUiUi
 1131      00000000 
 1132              	$LM120:
 1133              		.stabn 68,0,362,$LM120
 1134 0b20 0000C48F 		lw	$4,0($fp)
 1135 0b24 E200000C 		jal	nslPlaySound__FUi
 1135      00000000 
 1136              	$LBE10:
 1137 0b2c 03000010 		b	$L76
 1137      00000000 
 1138 0b34 01000010 		b	$L74
 1138      00000000 
 1139              		.p2align 2
 1140              	$L76:
 1141              	$LM121:
 1142              		.stabn 68,0,363,$LM121
 1143              	$L74:
 1144 0b3c 2DE8C003 		move	$sp,$fp
 1145 0b40 2000BFDF 		ld	$31,32($sp)
 1146 0b44 1000BEDF 		ld	$fp,16($sp)
 1147 0b48 3000BD27 		addu	$sp,$sp,48
 1148 0b4c 0800E003 		j	$31
 1148      00000000 
 1149              		.end	nslPlaySound3D__FUiRA2_Cf
 1150              	$LFE3:
 1151              	.stabs "nslPlaySound3D__FUiRA2_Cf:F22",36,0,354,nslPlaySound3D__FUiRA2_Cf
 1152              	.stabs "soundToPlay:p42",160,0,354,-48
 1153              	.stabs "pos:p290=&40",160,0,354,-44
 1154              	.stabs "emitId:43",128,0,359,-40
 1155              	.stabn 192,0,0,$LBB10
 1156              	.stabn 224,0,0,$LBE10
 1157              	$Lscope2:
 1158              	.stabs "",36,0,0,$Lscope2-nslPlaySound3D__FUiRA2_Cf
 1159 0b54 00000000 		.p2align 3
 1160              		.globl	nslStopSound__FUi
 1161              	$LFB4:
 1162              	$LM122:
 1163              		.stabn 68,0,370,$LM122
 1164              	.stabs "nsl_ps2_sound.cpp",132,0,0,$Ltext0
 1165              		.ent	nslStopSound__FUi
 1166              	nslStopSound__FUi:
 1167              		.frame	$fp,48,$31		# vars= 16, regs= 4/0, args= 0, extra= 0
 1168              		.mask	0xc0000000,-16
 1169              		.fmask	0x00000000,0
 1170 0b58 D0FFBD27 		subu	$sp,$sp,48
GAS LISTING C:\DOCUME~1\Schmidt\LOCALS~1\Temp\ccKmaaaa.s 			page 25


 1171              	$LCFI12:
 1172 0b5c 2000BFFF 		sd	$31,32($sp)
 1173              	$LCFI13:
 1174 0b60 1000BEFF 		sd	$fp,16($sp)
 1175              	$LCFI14:
 1176 0b64 2DF0A003 		move	$fp,$sp
 1177              	$LCFI15:
 1178 0b68 0000C4AF 		sw	$4,0($fp)
 1179              	$LM123:
 1180              		.stabn 68,0,370,$LM123
 1181              	$LBB11:
 1182              	$LM124:
 1183              		.stabn 68,0,371,$LM124
 1184 0b6c 0100023C 		lw	$2,nsl+61560
 1184      78F0428C 
 1185 0b74 03004014 		bne	$2,$0,$L78
 1185      00000000 
 1186 0b7c 67000010 		b	$L77
 1186      00000000 
 1187              		.p2align 2
 1188              	$L78:
 1189              	$LM125:
 1190              		.stabn 68,0,372,$LM125
 1191 0b84 0000000C 		jal	_nslInitialized__Fv
 1191      00000000 
 1192              	$LM126:
 1193              		.stabn 68,0,374,$LM126
 1194 0b8c 0000C48F 		lw	$4,0($fp)
 1195 0b90 6A05000C 		jal	nslGetSoundStatus__FUi
 1195      00000000 
 1196 0b98 5C004010 		beq	$2,$0,$L79
 1196      00000000 
 1197              	$LM127:
 1198              		.stabn 68,0,376,$LM127
 1199 0ba0 0000C38F 		lw	$3,0($fp)
 1200 0ba4 FF036230 		andi	$2,$3,0x3ff
 1201 0ba8 58000324 		li	$3,88			# 0x58
 1202 0bac 18104300 		mult	$2,$2,$3
 1203 0bb0 0000033C 		la	$3,nsl+22632
 1203      68586324 
 1204 0bb8 21106200 		addu	$2,$3,$2
 1205 0bbc 0000438C 		lw	$3,0($2)
 1206 0bc0 FFFF023C 		li	$2,4294901760			# 0xffff0000
 1207 0bc4 FFFF4234 		ori	$2,$2,0xffff
 1208 0bc8 11006210 		beq	$3,$2,$L80
 1208      00000000 
 1209              	$LM128:
 1210              		.stabn 68,0,377,$LM128
 1211 0bd0 0000C38F 		lw	$3,0($fp)
 1212 0bd4 FF036230 		andi	$2,$3,0x3ff
 1213 0bd8 58000324 		li	$3,88			# 0x58
 1214 0bdc 18104300 		mult	$2,$2,$3
 1215 0be0 0000033C 		la	$3,nsl+22632
 1215      68586324 
 1216 0be8 21106200 		addu	$2,$3,$2
 1217 0bec B0100424 		li	$4,4272			# 0x10b0
 1218 0bf0 0000053C 		la	$5,$LC8
GAS LISTING C:\DOCUME~1\Schmidt\LOCALS~1\Temp\ccKmaaaa.s 			page 26


 1218      2801A524 
 1219 0bf8 0000468C 		lw	$6,0($2)
 1220 0bfc 2D380000 		move	$7,$0
 1221 0c00 2D400000 		move	$8,$0
 1222 0c04 2D480000 		move	$9,$0
 1223 0c08 0000000C 		jal	nslPs2GasRpc__FiPCciiii
 1223      00000000 
 1224              	$L80:
 1225              	$LM129:
 1226              		.stabn 68,0,378,$LM129
 1227 0c10 0100043C 		la	$4,nsl+61520
 1227      50F08424 
 1228 0c18 2D28C003 		move	$5,$fp
 1229 0c1c 01000624 		li	$6,1			# 0x1
 1230 0c20 0000000C 		jal	find__t10fifo_queue1ZUiRCUis
 1230      00000000 
 1231              	$LM130:
 1232              		.stabn 68,0,383,$LM130
 1233 0c28 0000C38F 		lw	$3,0($fp)
 1234 0c2c FF036230 		andi	$2,$3,0x3ff
 1235 0c30 58000324 		li	$3,88			# 0x58
 1236 0c34 18104300 		mult	$2,$2,$3
 1237 0c38 0000033C 		la	$3,nsl+22652
 1237      7C586324 
 1238 0c40 21106200 		addu	$2,$3,$2
 1239 0c44 0000438C 		lw	$3,0($2)
 1240 0c48 14006010 		beq	$3,$0,$L81
 1240      00000000 
 1241              	$LM131:
 1242              		.stabn 68,0,384,$LM131
 1243 0c50 0000C38F 		lw	$3,0($fp)
 1244 0c54 FF036230 		andi	$2,$3,0x3ff
 1245 0c58 58000324 		li	$3,88			# 0x58
 1246 0c5c 18104300 		mult	$2,$2,$3
 1247 0c60 0000033C 		la	$3,nsl+22652
 1247      7C586324 
 1248 0c68 21106200 		addu	$2,$3,$2
 1249 0c6c 0000438C 		lw	$3,0($2)
 1250 0c70 FF036230 		andi	$2,$3,0x3ff
 1251 0c74 2D184000 		move	$3,$2
 1252 0c78 80110300 		sll	$2,$3,6
 1253 0c7c 0100033C 		la	$3,nsl+45172
 1253      74B06324 
 1254 0c84 21104300 		addu	$2,$2,$3
 1255 0c88 2D204000 		move	$4,$2
 1256 0c8c 2D28C003 		move	$5,$fp
 1257 0c90 01000624 		li	$6,1			# 0x1
 1258 0c94 0000000C 		jal	find__t10fifo_queue1ZUiRCUis
 1258      00000000 
 1259              	$L81:
 1260              	$LM132:
 1261              		.stabn 68,0,387,$LM132
 1262 0c9c 0000C38F 		lw	$3,0($fp)
 1263 0ca0 FF036230 		andi	$2,$3,0x3ff
 1264 0ca4 2D204000 		move	$4,$2
 1265 0ca8 2D280000 		move	$5,$0
 1266 0cac 0000000C 		jal	_nslClearSoundSlot__FUib
GAS LISTING C:\DOCUME~1\Schmidt\LOCALS~1\Temp\ccKmaaaa.s 			page 27


 1266      00000000 
 1267              	$LM133:
 1268              		.stabn 68,0,388,$LM133
 1269 0cb4 0100023C 		lw	$2,nsl+61508
 1269      44F0428C 
 1270 0cbc FFFF4324 		addu	$3,$2,-1
 1271 0cc0 0100013C 		sw	$3,nsl+61508
 1271      44F023AC 
 1272              	$LM134:
 1273              		.stabn 68,0,390,$LM134
 1274 0cc8 0000C38F 		lw	$3,0($fp)
 1275 0ccc FF036230 		andi	$2,$3,0x3ff
 1276 0cd0 58000324 		li	$3,88			# 0x58
 1277 0cd4 18104300 		mult	$2,$2,$3
 1278 0cd8 0000033C 		la	$3,nsl+22644
 1278      74586324 
 1279 0ce0 21106200 		addu	$2,$3,$2
 1280 0ce4 0000C48F 		lw	$4,0($fp)
 1281 0ce8 FF038330 		andi	$3,$4,0x3ff
 1282 0cec 58000424 		li	$4,88			# 0x58
 1283 0cf0 18186400 		mult	$3,$3,$4
 1284 0cf4 0000043C 		la	$4,nsl+22644
 1284      74588424 
 1285 0cfc 21188300 		addu	$3,$4,$3
 1286 0d00 0000648C 		lw	$4,0($3)
 1287 0d04 00048324 		addu	$3,$4,1024
 1288 0d08 000043AC 		sw	$3,0($2)
 1289              	$L79:
 1290              	$LBE11:
 1291 0d0c 03000010 		b	$L82
 1291      00000000 
 1292 0d14 01000010 		b	$L77
 1292      00000000 
 1293              		.p2align 2
 1294              	$L82:
 1295              	$LM135:
 1296              		.stabn 68,0,392,$LM135
 1297              	$L77:
 1298 0d1c 2DE8C003 		move	$sp,$fp
 1299 0d20 2000BFDF 		ld	$31,32($sp)
 1300 0d24 1000BEDF 		ld	$fp,16($sp)
 1301 0d28 3000BD27 		addu	$sp,$sp,48
 1302 0d2c 0800E003 		j	$31
 1302      00000000 
 1303              		.end	nslStopSound__FUi
 1304              	$LFE4:
 1305              	.stabs "nslStopSound__FUi:F22",36,0,370,nslStopSound__FUi
 1306              	.stabs "soundToStop:p42",160,0,370,-48
 1307              	.stabn 192,0,0,$LBB11
 1308              	.stabn 224,0,0,$LBE11
 1309              	$Lscope3:
 1310              	.stabs "",36,0,0,$Lscope3-nslStopSound__FUi
 1311 0d34 00000000 		.p2align 3
 1312              		.globl	nslReleaseAllSounds__Fv
 1313              	$LFB5:
 1314              	$LM136:
 1315              		.stabn 68,0,399,$LM136
GAS LISTING C:\DOCUME~1\Schmidt\LOCALS~1\Temp\ccKmaaaa.s 			page 28


 1316              	.stabs "nsl_ps2_sound.cpp",132,0,0,$Ltext0
 1317              		.ent	nslReleaseAllSounds__Fv
 1318              	nslReleaseAllSounds__Fv:
 1319              		.frame	$fp,48,$31		# vars= 16, regs= 4/0, args= 0, extra= 0
 1320              		.mask	0xc0000000,-16
 1321              		.fmask	0x00000000,0
 1322 0d38 D0FFBD27 		subu	$sp,$sp,48
 1323              	$LCFI16:
 1324 0d3c 2000BFFF 		sd	$31,32($sp)
 1325              	$LCFI17:
 1326 0d40 1000BEFF 		sd	$fp,16($sp)
 1327              	$LCFI18:
 1328 0d44 2DF0A003 		move	$fp,$sp
 1329              	$LCFI19:
 1330              	$LM137:
 1331              		.stabn 68,0,399,$LM137
 1332              	$LBB12:
 1333              	$LM138:
 1334              		.stabn 68,0,400,$LM138
 1335 0d48 0100023C 		lw	$2,nsl+61560
 1335      78F0428C 
 1336 0d50 03004014 		bne	$2,$0,$L84
 1336      00000000 
 1337 0d58 26000010 		b	$L83
 1337      00000000 
 1338              		.p2align 2
 1339              	$L84:
 1340              	$LM139:
 1341              		.stabn 68,0,401,$LM139
 1342 0d60 0000000C 		jal	_nslInitialized__Fv
 1342      00000000 
 1343              	$LM140:
 1344              		.stabn 68,0,403,$LM140
 1345              	$LBB13:
 1346 0d68 0000C0AF 		sw	$0,0($fp)
 1347 0d6c 00000000 		.p2align 3
 1348              	$L85:
 1349 0d70 0000C28F 		lw	$2,0($fp)
 1350 0d74 00014328 		slt	$3,$2,256
 1351 0d78 03006014 		bne	$3,$0,$L88
 1351      00000000 
 1352 0d80 18000010 		b	$L86
 1352      00000000 
 1353              		.p2align 2
 1354              	$L88:
 1355              	$LM141:
 1356              		.stabn 68,0,405,$LM141
 1357 0d88 0000C28F 		lw	$2,0($fp)
 1358 0d8c 58000324 		li	$3,88			# 0x58
 1359 0d90 18104300 		mult	$2,$2,$3
 1360 0d94 0000033C 		la	$3,nsl+22596
 1360      44586324 
 1361 0d9c 21106200 		addu	$2,$3,$2
 1362 0da0 0000438C 		lw	$3,0($2)
 1363 0da4 0A006010 		beq	$3,$0,$L87
 1363      00000000 
 1364              	$LM142:
GAS LISTING C:\DOCUME~1\Schmidt\LOCALS~1\Temp\ccKmaaaa.s 			page 29


 1365              		.stabn 68,0,407,$LM142
 1366 0dac 0000C28F 		lw	$2,0($fp)
 1367 0db0 58000324 		li	$3,88			# 0x58
 1368 0db4 18104300 		mult	$2,$2,$3
 1369 0db8 0000033C 		la	$3,nsl+22644
 1369      74586324 
 1370 0dc0 21106200 		addu	$2,$3,$2
 1371 0dc4 0000448C 		lw	$4,0($2)
 1372 0dc8 D602000C 		jal	nslStopSound__FUi
 1372      00000000 
 1373              	$L89:
 1374              	$LM143:
 1375              		.stabn 68,0,409,$LM143
 1376              	$L87:
 1377 0dd0 0000C28F 		lw	$2,0($fp)
 1378 0dd4 01004324 		addu	$3,$2,1
 1379 0dd8 0000C3AF 		sw	$3,0($fp)
 1380 0ddc E4FF0010 		b	$L85
 1380      00000000 
 1381              		.p2align 2
 1382              	$L86:
 1383              	$LBE13:
 1384              	$LBE12:
 1385 0de4 03000010 		b	$L90
 1385      00000000 
 1386 0dec 01000010 		b	$L83
 1386      00000000 
 1387              		.p2align 2
 1388              	$L90:
 1389              	$LM144:
 1390              		.stabn 68,0,410,$LM144
 1391              	$L83:
 1392 0df4 2DE8C003 		move	$sp,$fp
 1393 0df8 2000BFDF 		ld	$31,32($sp)
 1394 0dfc 1000BEDF 		ld	$fp,16($sp)
 1395 0e00 3000BD27 		addu	$sp,$sp,48
 1396 0e04 0800E003 		j	$31
 1396      00000000 
 1397              		.end	nslReleaseAllSounds__Fv
 1398              	$LFE5:
 1399              	.stabs "nslReleaseAllSounds__Fv:F22",36,0,399,nslReleaseAllSounds__Fv
 1400              	.stabn 192,0,0,$LBB12
 1401              	.stabs "i:1",128,0,403,-48
 1402              	.stabn 192,0,0,$LBB13
 1403              	.stabn 224,0,0,$LBE13
 1404              	.stabn 224,0,0,$LBE12
 1405              	$Lscope4:
 1406              	.stabs "",36,0,0,$Lscope4-nslReleaseAllSounds__Fv
 1407 0e0c 00000000 		.p2align 3
 1408              		.globl	nslPauseSound__FUi
 1409              	$LFB6:
 1410              	$LM145:
 1411              		.stabn 68,0,417,$LM145
 1412              	.stabs "nsl_ps2_sound.cpp",132,0,0,$Ltext0
 1413              		.ent	nslPauseSound__FUi
 1414              	nslPauseSound__FUi:
 1415              		.frame	$fp,48,$31		# vars= 16, regs= 4/0, args= 0, extra= 0
GAS LISTING C:\DOCUME~1\Schmidt\LOCALS~1\Temp\ccKmaaaa.s 			page 30


 1416              		.mask	0xc0000000,-16
 1417              		.fmask	0x00000000,0
 1418 0e10 D0FFBD27 		subu	$sp,$sp,48
 1419              	$LCFI20:
 1420 0e14 2000BFFF 		sd	$31,32($sp)
 1421              	$LCFI21:
 1422 0e18 1000BEFF 		sd	$fp,16($sp)
 1423              	$LCFI22:
 1424 0e1c 2DF0A003 		move	$fp,$sp
 1425              	$LCFI23:
 1426 0e20 0000C4AF 		sw	$4,0($fp)
 1427              	$LM146:
 1428              		.stabn 68,0,417,$LM146
 1429              	$LBB14:
 1430              	$LM147:
 1431              		.stabn 68,0,418,$LM147
 1432 0e24 0100023C 		lw	$2,nsl+61560
 1432      78F0428C 
 1433 0e2c 03004014 		bne	$2,$0,$L92
 1433      00000000 
 1434 0e34 22000010 		b	$L91
 1434      00000000 
 1435              		.p2align 2
 1436              	$L92:
 1437              	$LM148:
 1438              		.stabn 68,0,419,$LM148
 1439 0e3c 0000000C 		jal	_nslInitialized__Fv
 1439      00000000 
 1440              	$LM149:
 1441              		.stabn 68,0,422,$LM149
 1442 0e44 0000C48F 		lw	$4,0($fp)
 1443 0e48 0000000C 		jal	_nslCheckSoundIdValidity__FUi
 1443      00000000 
 1444              	$LM150:
 1445              		.stabn 68,0,423,$LM150
 1446 0e50 0000C38F 		lw	$3,0($fp)
 1447 0e54 FF036230 		andi	$2,$3,0x3ff
 1448 0e58 58000324 		li	$3,88			# 0x58
 1449 0e5c 18104300 		mult	$2,$2,$3
 1450 0e60 0000033C 		la	$3,nsl+22636
 1450      6C586324 
 1451 0e68 21106200 		addu	$2,$3,$2
 1452 0e6c 0000C38F 		lw	$3,0($fp)
 1453 0e70 FF036230 		andi	$2,$3,0x3ff
 1454 0e74 58000324 		li	$3,88			# 0x58
 1455 0e78 18104300 		mult	$2,$2,$3
 1456 0e7c 0000033C 		la	$3,nsl+22636
 1456      6C586324 
 1457 0e84 21106200 		addu	$2,$3,$2
 1458 0e88 0000C48F 		lw	$4,0($fp)
 1459 0e8c FF038330 		andi	$3,$4,0x3ff
 1460 0e90 58000424 		li	$4,88			# 0x58
 1461 0e94 18186400 		mult	$3,$3,$4
 1462 0e98 0000043C 		la	$4,nsl+22636
 1462      6C588424 
 1463 0ea0 21188300 		addu	$3,$4,$3
 1464 0ea4 0000648C 		lw	$4,0($3)
GAS LISTING C:\DOCUME~1\Schmidt\LOCALS~1\Temp\ccKmaaaa.s 			page 31


 1465 0ea8 01008324 		addu	$3,$4,1
 1466 0eac 000043AC 		sw	$3,0($2)
 1467              	$LBE14:
 1468 0eb0 03000010 		b	$L93
 1468      00000000 
 1469 0eb8 01000010 		b	$L91
 1469      00000000 
 1470              		.p2align 2
 1471              	$L93:
 1472              	$LM151:
 1473              		.stabn 68,0,424,$LM151
 1474              	$L91:
 1475 0ec0 2DE8C003 		move	$sp,$fp
 1476 0ec4 2000BFDF 		ld	$31,32($sp)
 1477 0ec8 1000BEDF 		ld	$fp,16($sp)
 1478 0ecc 3000BD27 		addu	$sp,$sp,48
 1479 0ed0 0800E003 		j	$31
 1479      00000000 
 1480              		.end	nslPauseSound__FUi
 1481              	$LFE6:
 1482              	.stabs "nslPauseSound__FUi:F22",36,0,417,nslPauseSound__FUi
 1483              	.stabs "whichSound:p42",160,0,417,-48
 1484              	.stabn 192,0,0,$LBB14
 1485              	.stabn 224,0,0,$LBE14
 1486              	$Lscope5:
 1487              	.stabs "",36,0,0,$Lscope5-nslPauseSound__FUi
 1488              		.p2align 3
 1489              		.globl	nslUnpauseSound__FUi
 1490              	$LFB7:
 1491              	$LM152:
 1492              		.stabn 68,0,431,$LM152
 1493              	.stabs "nsl_ps2_sound.cpp",132,0,0,$Ltext0
 1494              		.ent	nslUnpauseSound__FUi
 1495              	nslUnpauseSound__FUi:
 1496              		.frame	$fp,48,$31		# vars= 16, regs= 4/0, args= 0, extra= 0
 1497              		.mask	0xc0000000,-16
 1498              		.fmask	0x00000000,0
 1499 0ed8 D0FFBD27 		subu	$sp,$sp,48
 1500              	$LCFI24:
 1501 0edc 2000BFFF 		sd	$31,32($sp)
 1502              	$LCFI25:
 1503 0ee0 1000BEFF 		sd	$fp,16($sp)
 1504              	$LCFI26:
 1505 0ee4 2DF0A003 		move	$fp,$sp
 1506              	$LCFI27:
 1507 0ee8 0000C4AF 		sw	$4,0($fp)
 1508              	$LM153:
 1509              		.stabn 68,0,431,$LM153
 1510              	$LBB15:
 1511              	$LM154:
 1512              		.stabn 68,0,432,$LM154
 1513 0eec 0100023C 		lw	$2,nsl+61560
 1513      78F0428C 
 1514 0ef4 03004014 		bne	$2,$0,$L95
 1514      00000000 
 1515 0efc 2C000010 		b	$L94
 1515      00000000 
GAS LISTING C:\DOCUME~1\Schmidt\LOCALS~1\Temp\ccKmaaaa.s 			page 32


 1516              		.p2align 2
 1517              	$L95:
 1518              	$LM155:
 1519              		.stabn 68,0,433,$LM155
 1520 0f04 0000000C 		jal	_nslInitialized__Fv
 1520      00000000 
 1521              	$LM156:
 1522              		.stabn 68,0,434,$LM156
 1523 0f0c 0000C48F 		lw	$4,0($fp)
 1524 0f10 0000000C 		jal	_nslCheckSoundIdValidity__FUi
 1524      00000000 
 1525              	$LM157:
 1526              		.stabn 68,0,436,$LM157
 1527 0f18 0000C38F 		lw	$3,0($fp)
 1528 0f1c FF036230 		andi	$2,$3,0x3ff
 1529 0f20 58000324 		li	$3,88			# 0x58
 1530 0f24 18104300 		mult	$2,$2,$3
 1531 0f28 0000033C 		la	$3,nsl+22636
 1531      6C586324 
 1532 0f30 21106200 		addu	$2,$3,$2
 1533 0f34 0000438C 		lw	$3,0($2)
 1534 0f38 19006018 		blez	$3,$L96
 1534      00000000 
 1535              	$LM158:
 1536              		.stabn 68,0,437,$LM158
 1537 0f40 0000C38F 		lw	$3,0($fp)
 1538 0f44 FF036230 		andi	$2,$3,0x3ff
 1539 0f48 58000324 		li	$3,88			# 0x58
 1540 0f4c 18104300 		mult	$2,$2,$3
 1541 0f50 0000033C 		la	$3,nsl+22636
 1541      6C586324 
 1542 0f58 21106200 		addu	$2,$3,$2
 1543 0f5c 0000C38F 		lw	$3,0($fp)
 1544 0f60 FF036230 		andi	$2,$3,0x3ff
 1545 0f64 58000324 		li	$3,88			# 0x58
 1546 0f68 18104300 		mult	$2,$2,$3
 1547 0f6c 0000033C 		la	$3,nsl+22636
 1547      6C586324 
 1548 0f74 21106200 		addu	$2,$3,$2
 1549 0f78 0000C48F 		lw	$4,0($fp)
 1550 0f7c FF038330 		andi	$3,$4,0x3ff
 1551 0f80 58000424 		li	$4,88			# 0x58
 1552 0f84 18186400 		mult	$3,$3,$4
 1553 0f88 0000043C 		la	$4,nsl+22636
 1553      6C588424 
 1554 0f90 21188300 		addu	$3,$4,$3
 1555 0f94 0000648C 		lw	$4,0($3)
 1556 0f98 FFFF8324 		addu	$3,$4,-1
 1557 0f9c 000043AC 		sw	$3,0($2)
 1558              	$L96:
 1559              	$LBE15:
 1560 0fa0 03000010 		b	$L97
 1560      00000000 
 1561 0fa8 01000010 		b	$L94
 1561      00000000 
 1562              		.p2align 2
 1563              	$L97:
GAS LISTING C:\DOCUME~1\Schmidt\LOCALS~1\Temp\ccKmaaaa.s 			page 33


 1564              	$LM159:
 1565              		.stabn 68,0,439,$LM159
 1566              	$L94:
 1567 0fb0 2DE8C003 		move	$sp,$fp
 1568 0fb4 2000BFDF 		ld	$31,32($sp)
 1569 0fb8 1000BEDF 		ld	$fp,16($sp)
 1570 0fbc 3000BD27 		addu	$sp,$sp,48
 1571 0fc0 0800E003 		j	$31
 1571      00000000 
 1572              		.end	nslUnpauseSound__FUi
 1573              	$LFE7:
 1574              	.stabs "nslUnpauseSound__FUi:F22",36,0,431,nslUnpauseSound__FUi
 1575              	.stabs "whichSound:p42",160,0,431,-48
 1576              	.stabn 192,0,0,$LBB15
 1577              	.stabn 224,0,0,$LBE15
 1578              	$Lscope6:
 1579              	.stabs "",36,0,0,$Lscope6-nslUnpauseSound__FUi
 1580              		.rdata
 1581 01cc 00000000 		.align	3
 1582              	$LC12:
 1583 01d0 54727969 		.ascii	"Trying to pause guard a paused sound!\000"
 1583      6E672074 
 1583      6F207061 
 1583      75736520 
 1583      67756172 
 1584              		.text
 1585              		.p2align 3
 1586              		.globl	nslPauseGuardSound__FUi
 1587              	$LFB8:
 1588              	$LM160:
 1589              		.stabn 68,0,445,$LM160
 1590              	.stabs "nsl_ps2_sound.cpp",132,0,0,$Ltext0
 1591              		.ent	nslPauseGuardSound__FUi
 1592              	nslPauseGuardSound__FUi:
 1593              		.frame	$fp,48,$31		# vars= 16, regs= 4/0, args= 0, extra= 0
 1594              		.mask	0xc0000000,-16
 1595              		.fmask	0x00000000,0
 1596 0fc8 D0FFBD27 		subu	$sp,$sp,48
 1597              	$LCFI28:
 1598 0fcc 2000BFFF 		sd	$31,32($sp)
 1599              	$LCFI29:
 1600 0fd0 1000BEFF 		sd	$fp,16($sp)
 1601              	$LCFI30:
 1602 0fd4 2DF0A003 		move	$fp,$sp
 1603              	$LCFI31:
 1604 0fd8 0000C4AF 		sw	$4,0($fp)
 1605              	$LM161:
 1606              		.stabn 68,0,445,$LM161
 1607              	$LBB16:
 1608              	$LM162:
 1609              		.stabn 68,0,446,$LM162
 1610 0fdc 0100023C 		lw	$2,nsl+61560
 1610      78F0428C 
 1611 0fe4 03004014 		bne	$2,$0,$L99
 1611      00000000 
 1612 0fec 2D000010 		b	$L98
 1612      00000000 
GAS LISTING C:\DOCUME~1\Schmidt\LOCALS~1\Temp\ccKmaaaa.s 			page 34


 1613              		.p2align 2
 1614              	$L99:
 1615              	$LM163:
 1616              		.stabn 68,0,447,$LM163
 1617 0ff4 0000000C 		jal	_nslInitialized__Fv
 1617      00000000 
 1618              	$LM164:
 1619              		.stabn 68,0,448,$LM164
 1620 0ffc 0000C48F 		lw	$4,0($fp)
 1621 1000 0000000C 		jal	_nslCheckSoundIdValidity__FUi
 1621      00000000 
 1622              	$LM165:
 1623              		.stabn 68,0,449,$LM165
 1624 1008 0000C38F 		lw	$3,0($fp)
 1625 100c FF036230 		andi	$2,$3,0x3ff
 1626 1010 58000324 		li	$3,88			# 0x58
 1627 1014 18104300 		mult	$2,$2,$3
 1628 1018 0000033C 		la	$3,nsl+22636
 1628      6C586324 
 1629 1020 21106200 		addu	$2,$3,$2
 1630 1024 0000438C 		lw	$3,0($2)
 1631 1028 0400C3AF 		sw	$3,4($fp)
 1632              	$LM166:
 1633              		.stabn 68,0,450,$LM166
 1634 102c 0400C28F 		lw	$2,4($fp)
 1635 1030 05004018 		blez	$2,$L100
 1635      00000000 
 1636              	$LM167:
 1637              		.stabn 68,0,451,$LM167
 1638 1038 0000043C 		la	$4,$LC12
 1638      D0018424 
 1639 1040 0000000C 		jal	nslFatal__FPCce
 1639      00000000 
 1640              	$L100:
 1641              	$LM168:
 1642              		.stabn 68,0,452,$LM168
 1643 1048 0000C38F 		lw	$3,0($fp)
 1644 104c FF036230 		andi	$2,$3,0x3ff
 1645 1050 58000324 		li	$3,88			# 0x58
 1646 1054 18104300 		mult	$2,$2,$3
 1647 1058 0000033C 		la	$3,nsl+22636
 1647      6C586324 
 1648 1060 21106200 		addu	$2,$3,$2
 1649 1064 0000438C 		lw	$3,0($2)
 1650 1068 0A00601C 		bgtz	$3,$L101
 1650      00000000 
 1651              	$LM169:
 1652              		.stabn 68,0,453,$LM169
 1653 1070 0000C38F 		lw	$3,0($fp)
 1654 1074 FF036230 		andi	$2,$3,0x3ff
 1655 1078 58000324 		li	$3,88			# 0x58
 1656 107c 18104300 		mult	$2,$2,$3
 1657 1080 0000033C 		la	$3,nsl+22636
 1657      6C586324 
 1658 1088 21106200 		addu	$2,$3,$2
 1659 108c FFFF0324 		li	$3,-1			# 0xffffffffffffffff
 1660 1090 000043AC 		sw	$3,0($2)
GAS LISTING C:\DOCUME~1\Schmidt\LOCALS~1\Temp\ccKmaaaa.s 			page 35


 1661              	$L101:
 1662              	$LBE16:
 1663 1094 03000010 		b	$L102
 1663      00000000 
 1664 109c 01000010 		b	$L98
 1664      00000000 
 1665              		.p2align 2
 1666              	$L102:
 1667              	$LM170:
 1668              		.stabn 68,0,454,$LM170
 1669              	$L98:
 1670 10a4 2DE8C003 		move	$sp,$fp
 1671 10a8 2000BFDF 		ld	$31,32($sp)
 1672 10ac 1000BEDF 		ld	$fp,16($sp)
 1673 10b0 3000BD27 		addu	$sp,$sp,48
 1674 10b4 0800E003 		j	$31
 1674      00000000 
 1675              		.end	nslPauseGuardSound__FUi
 1676              	$LFE8:
 1677              	.stabs "nslPauseGuardSound__FUi:F22",36,0,445,nslPauseGuardSound__FUi
 1678              	.stabs "soundToGuard:p42",160,0,445,-48
 1679              	.stabs "pc:1",128,0,449,-44
 1680              	.stabn 192,0,0,$LBB16
 1681              	.stabn 224,0,0,$LBE16
 1682              	$Lscope7:
 1683              	.stabs "",36,0,0,$Lscope7-nslPauseGuardSound__FUi
 1684 10bc 00000000 		.p2align 3
 1685              		.globl	nslPauseAllSounds__Fv
 1686              	$LFB9:
 1687              	$LM171:
 1688              		.stabn 68,0,461,$LM171
 1689              	.stabs "nsl_ps2_sound.cpp",132,0,0,$Ltext0
 1690              		.ent	nslPauseAllSounds__Fv
 1691              	nslPauseAllSounds__Fv:
 1692              		.frame	$fp,48,$31		# vars= 16, regs= 4/0, args= 0, extra= 0
 1693              		.mask	0xc0000000,-16
 1694              		.fmask	0x00000000,0
 1695 10c0 D0FFBD27 		subu	$sp,$sp,48
 1696              	$LCFI32:
 1697 10c4 2000BFFF 		sd	$31,32($sp)
 1698              	$LCFI33:
 1699 10c8 1000BEFF 		sd	$fp,16($sp)
 1700              	$LCFI34:
 1701 10cc 2DF0A003 		move	$fp,$sp
 1702              	$LCFI35:
 1703              	$LM172:
 1704              		.stabn 68,0,461,$LM172
 1705              	$LBB17:
 1706              	$LM173:
 1707              		.stabn 68,0,462,$LM173
 1708 10d0 0100023C 		lw	$2,nsl+61560
 1708      78F0428C 
 1709 10d8 03004014 		bne	$2,$0,$L104
 1709      00000000 
 1710 10e0 32000010 		b	$L103
 1710      00000000 
 1711              		.p2align 2
GAS LISTING C:\DOCUME~1\Schmidt\LOCALS~1\Temp\ccKmaaaa.s 			page 36


 1712              	$L104:
 1713              	$LM174:
 1714              		.stabn 68,0,463,$LM174
 1715 10e8 0000000C 		jal	_nslInitialized__Fv
 1715      00000000 
 1716              	$LM175:
 1717              		.stabn 68,0,464,$LM175
 1718              	$LBB18:
 1719 10f0 0000C0AF 		sw	$0,0($fp)
 1720 10f4 00000000 		.p2align 3
 1721              	$L105:
 1722 10f8 0000C28F 		lw	$2,0($fp)
 1723 10fc 00014328 		slt	$3,$2,256
 1724 1100 03006014 		bne	$3,$0,$L108
 1724      00000000 
 1725 1108 24000010 		b	$L106
 1725      00000000 
 1726              		.p2align 2
 1727              	$L108:
 1728              	$LM176:
 1729              		.stabn 68,0,466,$LM176
 1730 1110 0000C28F 		lw	$2,0($fp)
 1731 1114 58000324 		li	$3,88			# 0x58
 1732 1118 18104300 		mult	$2,$2,$3
 1733 111c 0000033C 		la	$3,nsl+22596
 1733      44586324 
 1734 1124 21106200 		addu	$2,$3,$2
 1735 1128 0000438C 		lw	$3,0($2)
 1736 112c 16006010 		beq	$3,$0,$L107
 1736      00000000 
 1737              	$LM177:
 1738              		.stabn 68,0,468,$LM177
 1739 1134 0000C28F 		lw	$2,0($fp)
 1740 1138 58000324 		li	$3,88			# 0x58
 1741 113c 18104300 		mult	$2,$2,$3
 1742 1140 0000033C 		la	$3,nsl+22636
 1742      6C586324 
 1743 1148 21106200 		addu	$2,$3,$2
 1744 114c 0000C38F 		lw	$3,0($fp)
 1745 1150 58000424 		li	$4,88			# 0x58
 1746 1154 18106400 		mult	$2,$3,$4
 1747 1158 0000033C 		la	$3,nsl+22636
 1747      6C586324 
 1748 1160 21106200 		addu	$2,$3,$2
 1749 1164 0000C38F 		lw	$3,0($fp)
 1750 1168 58000424 		li	$4,88			# 0x58
 1751 116c 18186400 		mult	$3,$3,$4
 1752 1170 0000043C 		la	$4,nsl+22636
 1752      6C588424 
 1753 1178 21188300 		addu	$3,$4,$3
 1754 117c 0000648C 		lw	$4,0($3)
 1755 1180 01008324 		addu	$3,$4,1
 1756 1184 000043AC 		sw	$3,0($2)
 1757              	$L109:
 1758              	$LM178:
 1759              		.stabn 68,0,470,$LM178
 1760              	$L107:
GAS LISTING C:\DOCUME~1\Schmidt\LOCALS~1\Temp\ccKmaaaa.s 			page 37


 1761 1188 0000C28F 		lw	$2,0($fp)
 1762 118c 01004324 		addu	$3,$2,1
 1763 1190 0000C3AF 		sw	$3,0($fp)
 1764 1194 D8FF0010 		b	$L105
 1764      00000000 
 1765              		.p2align 2
 1766              	$L106:
 1767              	$LBE18:
 1768              	$LBE17:
 1769 119c 03000010 		b	$L110
 1769      00000000 
 1770 11a4 01000010 		b	$L103
 1770      00000000 
 1771              		.p2align 2
 1772              	$L110:
 1773              	$LM179:
 1774              		.stabn 68,0,471,$LM179
 1775              	$L103:
 1776 11ac 2DE8C003 		move	$sp,$fp
 1777 11b0 2000BFDF 		ld	$31,32($sp)
 1778 11b4 1000BEDF 		ld	$fp,16($sp)
 1779 11b8 3000BD27 		addu	$sp,$sp,48
 1780 11bc 0800E003 		j	$31
 1780      00000000 
 1781              		.end	nslPauseAllSounds__Fv
 1782              	$LFE9:
 1783              	.stabs "nslPauseAllSounds__Fv:F22",36,0,461,nslPauseAllSounds__Fv
 1784              	.stabn 192,0,0,$LBB17
 1785              	.stabs "i:1",128,0,464,-48
 1786              	.stabn 192,0,0,$LBB18
 1787              	.stabn 224,0,0,$LBE18
 1788              	.stabn 224,0,0,$LBE17
 1789              	$Lscope8:
 1790              	.stabs "",36,0,0,$Lscope8-nslPauseAllSounds__Fv
 1791 11c4 00000000 		.p2align 3
 1792              		.globl	nslUnpauseAllSounds__Fv
 1793              	$LFB10:
 1794              	$LM180:
 1795              		.stabn 68,0,478,$LM180
 1796              	.stabs "nsl_ps2_sound.cpp",132,0,0,$Ltext0
 1797              		.ent	nslUnpauseAllSounds__Fv
 1798              	nslUnpauseAllSounds__Fv:
 1799              		.frame	$fp,48,$31		# vars= 16, regs= 4/0, args= 0, extra= 0
 1800              		.mask	0xc0000000,-16
 1801              		.fmask	0x00000000,0
 1802 11c8 D0FFBD27 		subu	$sp,$sp,48
 1803              	$LCFI36:
 1804 11cc 2000BFFF 		sd	$31,32($sp)
 1805              	$LCFI37:
 1806 11d0 1000BEFF 		sd	$fp,16($sp)
 1807              	$LCFI38:
 1808 11d4 2DF0A003 		move	$fp,$sp
 1809              	$LCFI39:
 1810              	$LM181:
 1811              		.stabn 68,0,478,$LM181
 1812              	$LBB19:
 1813              	$LM182:
GAS LISTING C:\DOCUME~1\Schmidt\LOCALS~1\Temp\ccKmaaaa.s 			page 38


 1814              		.stabn 68,0,479,$LM182
 1815 11d8 0100023C 		lw	$2,nsl+61560
 1815      78F0428C 
 1816 11e0 03004014 		bne	$2,$0,$L112
 1816      00000000 
 1817 11e8 3B000010 		b	$L111
 1817      00000000 
 1818              		.p2align 2
 1819              	$L112:
 1820              	$LM183:
 1821              		.stabn 68,0,480,$LM183
 1822 11f0 0000000C 		jal	_nslInitialized__Fv
 1822      00000000 
 1823              	$LM184:
 1824              		.stabn 68,0,482,$LM184
 1825              	$LBB20:
 1826 11f8 0000C0AF 		sw	$0,0($fp)
 1827 11fc 00000000 		.p2align 3
 1828              	$L113:
 1829 1200 0000C28F 		lw	$2,0($fp)
 1830 1204 00014328 		slt	$3,$2,256
 1831 1208 03006014 		bne	$3,$0,$L116
 1831      00000000 
 1832 1210 2D000010 		b	$L114
 1832      00000000 
 1833              		.p2align 2
 1834              	$L116:
 1835              	$LM185:
 1836              		.stabn 68,0,483,$LM185
 1837 1218 0000C28F 		lw	$2,0($fp)
 1838 121c 58000324 		li	$3,88			# 0x58
 1839 1220 18104300 		mult	$2,$2,$3
 1840 1224 0000033C 		la	$3,nsl+22596
 1840      44586324 
 1841 122c 21106200 		addu	$2,$3,$2
 1842 1230 0000438C 		lw	$3,0($2)
 1843 1234 1F006010 		beq	$3,$0,$L115
 1843      00000000 
 1844              	$LM186:
 1845              		.stabn 68,0,484,$LM186
 1846 123c 0000C28F 		lw	$2,0($fp)
 1847 1240 58000324 		li	$3,88			# 0x58
 1848 1244 18104300 		mult	$2,$2,$3
 1849 1248 0000033C 		la	$3,nsl+22636
 1849      6C586324 
 1850 1250 21106200 		addu	$2,$3,$2
 1851 1254 0000438C 		lw	$3,0($2)
 1852 1258 16006018 		blez	$3,$L115
 1852      00000000 
 1853              	$LM187:
 1854              		.stabn 68,0,485,$LM187
 1855 1260 0000C28F 		lw	$2,0($fp)
 1856 1264 58000324 		li	$3,88			# 0x58
 1857 1268 18104300 		mult	$2,$2,$3
 1858 126c 0000033C 		la	$3,nsl+22636
 1858      6C586324 
 1859 1274 21106200 		addu	$2,$3,$2
GAS LISTING C:\DOCUME~1\Schmidt\LOCALS~1\Temp\ccKmaaaa.s 			page 39


 1860 1278 0000C38F 		lw	$3,0($fp)
 1861 127c 58000424 		li	$4,88			# 0x58
 1862 1280 18106400 		mult	$2,$3,$4
 1863 1284 0000033C 		la	$3,nsl+22636
 1863      6C586324 
 1864 128c 21106200 		addu	$2,$3,$2
 1865 1290 0000C38F 		lw	$3,0($fp)
 1866 1294 58000424 		li	$4,88			# 0x58
 1867 1298 18186400 		mult	$3,$3,$4
 1868 129c 0000043C 		la	$4,nsl+22636
 1868      6C588424 
 1869 12a4 21188300 		addu	$3,$4,$3
 1870 12a8 0000648C 		lw	$4,0($3)
 1871 12ac FFFF8324 		addu	$3,$4,-1
 1872 12b0 000043AC 		sw	$3,0($2)
 1873              	$L118:
 1874              	$L117:
 1875              	$LM188:
 1876              		.stabn 68,0,488,$LM188
 1877              	$L115:
 1878 12b4 0000C28F 		lw	$2,0($fp)
 1879 12b8 01004324 		addu	$3,$2,1
 1880 12bc 0000C3AF 		sw	$3,0($fp)
 1881 12c0 CFFF0010 		b	$L113
 1881      00000000 
 1882              		.p2align 2
 1883              	$L114:
 1884              	$LBE20:
 1885              	$LBE19:
 1886 12c8 03000010 		b	$L119
 1886      00000000 
 1887 12d0 01000010 		b	$L111
 1887      00000000 
 1888              		.p2align 2
 1889              	$L119:
 1890              	$LM189:
 1891              		.stabn 68,0,488,$LM189
 1892              	$L111:
 1893 12d8 2DE8C003 		move	$sp,$fp
 1894 12dc 2000BFDF 		ld	$31,32($sp)
 1895 12e0 1000BEDF 		ld	$fp,16($sp)
 1896 12e4 3000BD27 		addu	$sp,$sp,48
 1897 12e8 0800E003 		j	$31
 1897      00000000 
 1898              		.end	nslUnpauseAllSounds__Fv
 1899              	$LFE10:
 1900              	.stabs "nslUnpauseAllSounds__Fv:F22",36,0,478,nslUnpauseAllSounds__Fv
 1901              	.stabn 192,0,0,$LBB19
 1902              	.stabs "i:1",128,0,482,-48
 1903              	.stabn 192,0,0,$LBB20
 1904              	.stabn 224,0,0,$LBE20
 1905              	.stabn 224,0,0,$LBE19
 1906              	$Lscope9:
 1907              	.stabs "",36,0,0,$Lscope9-nslUnpauseAllSounds__Fv
 1908              		.p2align 3
 1909              		.globl	nslUndampenAllSounds__Fv
 1910              	$LFB11:
GAS LISTING C:\DOCUME~1\Schmidt\LOCALS~1\Temp\ccKmaaaa.s 			page 40


 1911              	$LM190:
 1912              		.stabn 68,0,496,$LM190
 1913              	.stabs "nsl_ps2_sound.cpp",132,0,0,$Ltext0
 1914              		.ent	nslUndampenAllSounds__Fv
 1915              	nslUndampenAllSounds__Fv:
 1916              		.frame	$fp,48,$31		# vars= 16, regs= 4/0, args= 0, extra= 0
 1917              		.mask	0xc0000000,-16
 1918              		.fmask	0x00000000,0
 1919 12f0 D0FFBD27 		subu	$sp,$sp,48
 1920              	$LCFI40:
 1921 12f4 2000BFFF 		sd	$31,32($sp)
 1922              	$LCFI41:
 1923 12f8 1000BEFF 		sd	$fp,16($sp)
 1924              	$LCFI42:
 1925 12fc 2DF0A003 		move	$fp,$sp
 1926              	$LCFI43:
 1927              	$LM191:
 1928              		.stabn 68,0,496,$LM191
 1929              	$LBB21:
 1930              	$LM192:
 1931              		.stabn 68,0,497,$LM192
 1932 1300 0100023C 		lw	$2,nsl+61560
 1932      78F0428C 
 1933 1308 03004014 		bne	$2,$0,$L121
 1933      00000000 
 1934 1310 24000010 		b	$L120
 1934      00000000 
 1935              		.p2align 2
 1936              	$L121:
 1937              	$LM193:
 1938              		.stabn 68,0,498,$LM193
 1939 1318 0000000C 		jal	_nslInitialized__Fv
 1939      00000000 
 1940              	$LM194:
 1941              		.stabn 68,0,499,$LM194
 1942              	$LBB22:
 1943 1320 0000C0AF 		sw	$0,0($fp)
 1944 1324 00000000 		.p2align 3
 1945              	$L122:
 1946 1328 0000C28F 		lw	$2,0($fp)
 1947 132c 00014328 		slt	$3,$2,256
 1948 1330 03006014 		bne	$3,$0,$L125
 1948      00000000 
 1949 1338 16000010 		b	$L123
 1949      00000000 
 1950              		.p2align 2
 1951              	$L125:
 1952              	$LM195:
 1953              		.stabn 68,0,500,$LM195
 1954 1340 0000C28F 		lw	$2,0($fp)
 1955 1344 58000324 		li	$3,88			# 0x58
 1956 1348 18104300 		mult	$2,$2,$3
 1957 134c 0000033C 		la	$3,nsl+22596
 1957      44586324 
 1958 1354 21106200 		addu	$2,$3,$2
 1959 1358 0000438C 		lw	$3,0($2)
 1960 135c 08006010 		beq	$3,$0,$L124
GAS LISTING C:\DOCUME~1\Schmidt\LOCALS~1\Temp\ccKmaaaa.s 			page 41


 1960      00000000 
 1961              	$LM196:
 1962              		.stabn 68,0,501,$LM196
 1963 1364 0000C28F 		lw	$2,0($fp)
 1964 1368 58000324 		li	$3,88			# 0x58
 1965 136c 18104300 		mult	$2,$2,$3
 1966 1370 0000033C 		la	$3,nsl+22640
 1966      70586324 
 1967 1378 21106200 		addu	$2,$3,$2
 1968 137c 000040AC 		sw	$0,0($2)
 1969              	$L126:
 1970              	$LM197:
 1971              		.stabn 68,0,502,$LM197
 1972              	$L124:
 1973 1380 0000C28F 		lw	$2,0($fp)
 1974 1384 01004324 		addu	$3,$2,1
 1975 1388 0000C3AF 		sw	$3,0($fp)
 1976 138c E6FF0010 		b	$L122
 1976      00000000 
 1977              		.p2align 2
 1978              	$L123:
 1979              	$LBE22:
 1980              	$LBE21:
 1981 1394 03000010 		b	$L127
 1981      00000000 
 1982 139c 01000010 		b	$L120
 1982      00000000 
 1983              		.p2align 2
 1984              	$L127:
 1985              	$LM198:
 1986              		.stabn 68,0,502,$LM198
 1987              	$L120:
 1988 13a4 2DE8C003 		move	$sp,$fp
 1989 13a8 2000BFDF 		ld	$31,32($sp)
 1990 13ac 1000BEDF 		ld	$fp,16($sp)
 1991 13b0 3000BD27 		addu	$sp,$sp,48
 1992 13b4 0800E003 		j	$31
 1992      00000000 
 1993              		.end	nslUndampenAllSounds__Fv
 1994              	$LFE11:
 1995              	.stabs "nslUndampenAllSounds__Fv:F22",36,0,496,nslUndampenAllSounds__Fv
 1996              	.stabn 192,0,0,$LBB21
 1997              	.stabs "i:1",128,0,499,-48
 1998              	.stabn 192,0,0,$LBB22
 1999              	.stabn 224,0,0,$LBE22
 2000              	.stabn 224,0,0,$LBE21
 2001              	$Lscope10:
 2002              	.stabs "",36,0,0,$Lscope10-nslUndampenAllSounds__Fv
 2003 13bc 00000000 		.p2align 3
 2004              		.globl	nslDampenGuardSound__FUi
 2005              	$LFB12:
 2006              	$LM199:
 2007              		.stabn 68,0,509,$LM199
 2008              	.stabs "nsl_ps2_sound.cpp",132,0,0,$Ltext0
 2009              		.ent	nslDampenGuardSound__FUi
 2010              	nslDampenGuardSound__FUi:
 2011              		.frame	$fp,48,$31		# vars= 16, regs= 4/0, args= 0, extra= 0
GAS LISTING C:\DOCUME~1\Schmidt\LOCALS~1\Temp\ccKmaaaa.s 			page 42


 2012              		.mask	0xc0000000,-16
 2013              		.fmask	0x00000000,0
 2014 13c0 D0FFBD27 		subu	$sp,$sp,48
 2015              	$LCFI44:
 2016 13c4 2000BFFF 		sd	$31,32($sp)
 2017              	$LCFI45:
 2018 13c8 1000BEFF 		sd	$fp,16($sp)
 2019              	$LCFI46:
 2020 13cc 2DF0A003 		move	$fp,$sp
 2021              	$LCFI47:
 2022 13d0 0000C4AF 		sw	$4,0($fp)
 2023              	$LM200:
 2024              		.stabn 68,0,509,$LM200
 2025              	$LBB23:
 2026              	$LM201:
 2027              		.stabn 68,0,510,$LM201
 2028 13d4 0100023C 		lw	$2,nsl+61560
 2028      78F0428C 
 2029 13dc 03004014 		bne	$2,$0,$L129
 2029      00000000 
 2030 13e4 1B000010 		b	$L128
 2030      00000000 
 2031              		.p2align 2
 2032              	$L129:
 2033              	$LM202:
 2034              		.stabn 68,0,513,$LM202
 2035 13ec 0000C48F 		lw	$4,0($fp)
 2036 13f0 0000000C 		jal	_nslCheckSoundIdValidity__FUi
 2036      00000000 
 2037              	$LM203:
 2038              		.stabn 68,0,515,$LM203
 2039 13f8 0000C38F 		lw	$3,0($fp)
 2040 13fc FF036230 		andi	$2,$3,0x3ff
 2041 1400 58000324 		li	$3,88			# 0x58
 2042 1404 18104300 		mult	$2,$2,$3
 2043 1408 0000033C 		la	$3,nsl+22640
 2043      70586324 
 2044 1410 21106200 		addu	$2,$3,$2
 2045 1414 0000438C 		lw	$3,0($2)
 2046 1418 0A00601C 		bgtz	$3,$L130
 2046      00000000 
 2047              	$LM204:
 2048              		.stabn 68,0,516,$LM204
 2049 1420 0000C38F 		lw	$3,0($fp)
 2050 1424 FF036230 		andi	$2,$3,0x3ff
 2051 1428 58000324 		li	$3,88			# 0x58
 2052 142c 18104300 		mult	$2,$2,$3
 2053 1430 0000033C 		la	$3,nsl+22640
 2053      70586324 
 2054 1438 21106200 		addu	$2,$3,$2
 2055 143c FFFF0324 		li	$3,-1			# 0xffffffffffffffff
 2056 1440 000043AC 		sw	$3,0($2)
 2057              	$L130:
 2058              	$LBE23:
 2059 1444 03000010 		b	$L131
 2059      00000000 
 2060 144c 01000010 		b	$L128
GAS LISTING C:\DOCUME~1\Schmidt\LOCALS~1\Temp\ccKmaaaa.s 			page 43


 2060      00000000 
 2061              		.p2align 2
 2062              	$L131:
 2063              	$LM205:
 2064              		.stabn 68,0,517,$LM205
 2065              	$L128:
 2066 1454 2DE8C003 		move	$sp,$fp
 2067 1458 2000BFDF 		ld	$31,32($sp)
 2068 145c 1000BEDF 		ld	$fp,16($sp)
 2069 1460 3000BD27 		addu	$sp,$sp,48
 2070 1464 0800E003 		j	$31
 2070      00000000 
 2071              		.end	nslDampenGuardSound__FUi
 2072              	$LFE12:
 2073              	.stabs "nslDampenGuardSound__FUi:F22",36,0,509,nslDampenGuardSound__FUi
 2074              	.stabs "soundToGuard:p42",160,0,509,-48
 2075              	.stabn 192,0,0,$LBB23
 2076              	.stabn 224,0,0,$LBE23
 2077              	$Lscope11:
 2078              	.stabs "",36,0,0,$Lscope11-nslDampenGuardSound__FUi
 2079 146c 00000000 		.p2align 3
 2080              		.globl	nslDampenAllSounds__Ff
 2081              	$LFB13:
 2082              	$LM206:
 2083              		.stabn 68,0,524,$LM206
 2084              	.stabs "nsl_ps2_sound.cpp",132,0,0,$Ltext0
 2085              		.ent	nslDampenAllSounds__Ff
 2086              	nslDampenAllSounds__Ff:
 2087              		.frame	$fp,48,$31		# vars= 16, regs= 4/0, args= 0, extra= 0
 2088              		.mask	0xc0000000,-16
 2089              		.fmask	0x00000000,0
 2090 1470 D0FFBD27 		subu	$sp,$sp,48
 2091              	$LCFI48:
 2092 1474 2000BFFF 		sd	$31,32($sp)
 2093              	$LCFI49:
 2094 1478 1000BEFF 		sd	$fp,16($sp)
 2095              	$LCFI50:
 2096 147c 2DF0A003 		move	$fp,$sp
 2097              	$LCFI51:
 2098 1480 0000CCE7 		s.s	$f12,0($fp)
 2099              	$LM207:
 2100              		.stabn 68,0,524,$LM207
 2101              	$LBB24:
 2102              	$LM208:
 2103              		.stabn 68,0,525,$LM208
 2104 1484 0100023C 		lw	$2,nsl+61560
 2104      78F0428C 
 2105 148c 03004014 		bne	$2,$0,$L133
 2105      00000000 
 2106 1494 3E000010 		b	$L132
 2106      00000000 
 2107              		.p2align 2
 2108              	$L133:
 2109              	$LM209:
 2110              		.stabn 68,0,526,$LM209
 2111 149c 0000000C 		jal	_nslInitialized__Fv
 2111      00000000 
GAS LISTING C:\DOCUME~1\Schmidt\LOCALS~1\Temp\ccKmaaaa.s 			page 44


 2112              	$LM210:
 2113              		.stabn 68,0,528,$LM210
 2114 14a4 0000C0C7 		l.s	$f0,0($fp)
 2115 14a8 0100013C 		s.s	$f0,nsl+61604
 2115      A4F020E4 
 2116              	$LM211:
 2117              		.stabn 68,0,530,$LM211
 2118              	$LBB25:
 2119 14b0 0400C0AF 		sw	$0,4($fp)
 2120 14b4 00000000 		.p2align 3
 2121              	$L134:
 2122 14b8 0400C28F 		lw	$2,4($fp)
 2123 14bc 00014328 		slt	$3,$2,256
 2124 14c0 03006014 		bne	$3,$0,$L137
 2124      00000000 
 2125 14c8 2D000010 		b	$L135
 2125      00000000 
 2126              		.p2align 2
 2127              	$L137:
 2128              	$LM212:
 2129              		.stabn 68,0,531,$LM212
 2130 14d0 0400C28F 		lw	$2,4($fp)
 2131 14d4 58000324 		li	$3,88			# 0x58
 2132 14d8 18104300 		mult	$2,$2,$3
 2133 14dc 0000033C 		la	$3,nsl+22596
 2133      44586324 
 2134 14e4 21106200 		addu	$2,$3,$2
 2135 14e8 0000438C 		lw	$3,0($2)
 2136 14ec 1F006010 		beq	$3,$0,$L136
 2136      00000000 
 2137              	$LM213:
 2138              		.stabn 68,0,532,$LM213
 2139 14f4 0400C28F 		lw	$2,4($fp)
 2140 14f8 58000324 		li	$3,88			# 0x58
 2141 14fc 18104300 		mult	$2,$2,$3
 2142 1500 0000033C 		la	$3,nsl+22640
 2142      70586324 
 2143 1508 21106200 		addu	$2,$3,$2
 2144 150c 0000438C 		lw	$3,0($2)
 2145 1510 1600601C 		bgtz	$3,$L136
 2145      00000000 
 2146              	$LM214:
 2147              		.stabn 68,0,533,$LM214
 2148 1518 0400C28F 		lw	$2,4($fp)
 2149 151c 58000324 		li	$3,88			# 0x58
 2150 1520 18104300 		mult	$2,$2,$3
 2151 1524 0000033C 		la	$3,nsl+22640
 2151      70586324 
 2152 152c 21106200 		addu	$2,$3,$2
 2153 1530 0400C38F 		lw	$3,4($fp)
 2154 1534 58000424 		li	$4,88			# 0x58
 2155 1538 18106400 		mult	$2,$3,$4
 2156 153c 0000033C 		la	$3,nsl+22640
 2156      70586324 
 2157 1544 21106200 		addu	$2,$3,$2
 2158 1548 0400C38F 		lw	$3,4($fp)
 2159 154c 58000424 		li	$4,88			# 0x58
GAS LISTING C:\DOCUME~1\Schmidt\LOCALS~1\Temp\ccKmaaaa.s 			page 45


 2160 1550 18186400 		mult	$3,$3,$4
 2161 1554 0000043C 		la	$4,nsl+22640
 2161      70588424 
 2162 155c 21188300 		addu	$3,$4,$3
 2163 1560 0000648C 		lw	$4,0($3)
 2164 1564 01008324 		addu	$3,$4,1
 2165 1568 000043AC 		sw	$3,0($2)
 2166              	$L139:
 2167              	$L138:
 2168              	$LM215:
 2169              		.stabn 68,0,536,$LM215
 2170              	$L136:
 2171 156c 0400C28F 		lw	$2,4($fp)
 2172 1570 01004324 		addu	$3,$2,1
 2173 1574 0400C3AF 		sw	$3,4($fp)
 2174 1578 CFFF0010 		b	$L134
 2174      00000000 
 2175              		.p2align 2
 2176              	$L135:
 2177              	$LBE25:
 2178              	$LBE24:
 2179 1580 03000010 		b	$L140
 2179      00000000 
 2180 1588 01000010 		b	$L132
 2180      00000000 
 2181              		.p2align 2
 2182              	$L140:
 2183              	$LM216:
 2184              		.stabn 68,0,536,$LM216
 2185              	$L132:
 2186 1590 2DE8C003 		move	$sp,$fp
 2187 1594 2000BFDF 		ld	$31,32($sp)
 2188 1598 1000BEDF 		ld	$fp,16($sp)
 2189 159c 3000BD27 		addu	$sp,$sp,48
 2190 15a0 0800E003 		j	$31
 2190      00000000 
 2191              		.end	nslDampenAllSounds__Ff
 2192              	$LFE13:
 2193              	.stabs "nslDampenAllSounds__Ff:F22",36,0,524,nslDampenAllSounds__Ff
 2194              	.stabs "dampenLevel:p14",160,0,524,-48
 2195              	.stabn 192,0,0,$LBB24
 2196              	.stabs "i:1",128,0,530,-44
 2197              	.stabn 192,0,0,$LBB25
 2198              	.stabn 224,0,0,$LBE25
 2199              	.stabn 224,0,0,$LBE24
 2200              	$Lscope12:
 2201              	.stabs "",36,0,0,$Lscope12-nslDampenAllSounds__Ff
 2202              		.p2align 3
 2203              		.globl	nslGetSoundStatus__FUi
 2204              	$LFB14:
 2205              	$LM217:
 2206              		.stabn 68,0,540,$LM217
 2207              	.stabs "nsl_ps2_sound.cpp",132,0,0,$Ltext0
 2208              		.ent	nslGetSoundStatus__FUi
 2209              	nslGetSoundStatus__FUi:
 2210              		.frame	$fp,48,$31		# vars= 16, regs= 4/0, args= 0, extra= 0
 2211              		.mask	0xc0000000,-16
GAS LISTING C:\DOCUME~1\Schmidt\LOCALS~1\Temp\ccKmaaaa.s 			page 46


 2212              		.fmask	0x00000000,0
 2213 15a8 D0FFBD27 		subu	$sp,$sp,48
 2214              	$LCFI52:
 2215 15ac 2000BFFF 		sd	$31,32($sp)
 2216              	$LCFI53:
 2217 15b0 1000BEFF 		sd	$fp,16($sp)
 2218              	$LCFI54:
 2219 15b4 2DF0A003 		move	$fp,$sp
 2220              	$LCFI55:
 2221 15b8 0000C4AF 		sw	$4,0($fp)
 2222              	$LM218:
 2223              		.stabn 68,0,540,$LM218
 2224              	$LBB26:
 2225              	$LM219:
 2226              		.stabn 68,0,542,$LM219
 2227 15bc 0100023C 		lw	$2,nsl+61560
 2227      78F0428C 
 2228 15c4 04004014 		bne	$2,$0,$L142
 2228      00000000 
 2229 15cc 2D100000 		move	$2,$0
 2230 15d0 86000010 		b	$L141
 2230      00000000 
 2231              		.p2align 2
 2232              	$L142:
 2233              	$LM220:
 2234              		.stabn 68,0,543,$LM220
 2235 15d8 0000000C 		jal	_nslInitialized__Fv
 2235      00000000 
 2236              	$LM221:
 2237              		.stabn 68,0,548,$LM221
 2238 15e0 0000C28F 		lw	$2,0($fp)
 2239 15e4 FF034330 		andi	$3,$2,0x3ff
 2240 15e8 0400C3AF 		sw	$3,4($fp)
 2241              	$LM222:
 2242              		.stabn 68,0,549,$LM222
 2243 15ec 0000C28F 		lw	$2,0($fp)
 2244 15f0 FFFF033C 		li	$3,4294901760			# 0xffff0000
 2245 15f4 00FC6334 		ori	$3,$3,0xfc00
 2246 15f8 24104300 		and	$2,$2,$3
 2247 15fc 0800C2AF 		sw	$2,8($fp)
 2248              	$LM223:
 2249              		.stabn 68,0,552,$LM223
 2250 1600 0000C28F 		lw	$2,0($fp)
 2251 1604 04004014 		bne	$2,$0,$L143
 2251      00000000 
 2252              	$LM224:
 2253              		.stabn 68,0,553,$LM224
 2254 160c 2D100000 		move	$2,$0
 2255 1610 76000010 		b	$L141
 2255      00000000 
 2256              		.p2align 2
 2257              	$L143:
 2258              	$LM225:
 2259              		.stabn 68,0,554,$LM225
 2260 1618 0400C28F 		lw	$2,4($fp)
 2261 161c 58000324 		li	$3,88			# 0x58
 2262 1620 18104300 		mult	$2,$2,$3
GAS LISTING C:\DOCUME~1\Schmidt\LOCALS~1\Temp\ccKmaaaa.s 			page 47


 2263 1624 0000033C 		la	$3,nsl+22596
 2263      44586324 
 2264 162c 21106200 		addu	$2,$3,$2
 2265 1630 0000438C 		lw	$3,0($2)
 2266 1634 04006014 		bne	$3,$0,$L144
 2266      00000000 
 2267              	$LM226:
 2268              		.stabn 68,0,555,$LM226
 2269 163c 2D100000 		move	$2,$0
 2270 1640 6A000010 		b	$L141
 2270      00000000 
 2271              		.p2align 2
 2272              	$L144:
 2273              	$LM227:
 2274              		.stabn 68,0,556,$LM227
 2275 1648 0400C28F 		lw	$2,4($fp)
 2276 164c 0001432C 		sltu	$3,$2,256
 2277 1650 04006014 		bne	$3,$0,$L145
 2277      00000000 
 2278              	$LM228:
 2279              		.stabn 68,0,557,$LM228
 2280 1658 2D100000 		move	$2,$0
 2281 165c 63000010 		b	$L141
 2281      00000000 
 2282              		.p2align 2
 2283              	$L145:
 2284              	$LM229:
 2285              		.stabn 68,0,558,$LM229
 2286 1664 0400C28F 		lw	$2,4($fp)
 2287 1668 58000324 		li	$3,88			# 0x58
 2288 166c 18104300 		mult	$2,$2,$3
 2289 1670 0000033C 		la	$3,nsl+22644
 2289      74586324 
 2290 1678 21106200 		addu	$2,$3,$2
 2291 167c 0000C38F 		lw	$3,0($fp)
 2292 1680 0000428C 		lw	$2,0($2)
 2293 1684 04006210 		beq	$3,$2,$L146
 2293      00000000 
 2294              	$LM230:
 2295              		.stabn 68,0,559,$LM230
 2296 168c 2D100000 		move	$2,$0
 2297 1690 56000010 		b	$L141
 2297      00000000 
 2298              		.p2align 2
 2299              	$L146:
 2300              	$LM231:
 2301              		.stabn 68,0,560,$LM231
 2302 1698 0800C28F 		lw	$2,8($fp)
 2303 169c 04004014 		bne	$2,$0,$L147
 2303      00000000 
 2304              	$LM232:
 2305              		.stabn 68,0,561,$LM232
 2306 16a4 2D100000 		move	$2,$0
 2307 16a8 50000010 		b	$L141
 2307      00000000 
 2308              		.p2align 2
 2309              	$L147:
GAS LISTING C:\DOCUME~1\Schmidt\LOCALS~1\Temp\ccKmaaaa.s 			page 48


 2310              	$LM233:
 2311              		.stabn 68,0,563,$LM233
 2312 16b0 0000C38F 		lw	$3,0($fp)
 2313 16b4 FF036230 		andi	$2,$3,0x3ff
 2314 16b8 58000324 		li	$3,88			# 0x58
 2315 16bc 18104300 		mult	$2,$2,$3
 2316 16c0 0000033C 		la	$3,nsl+22636
 2316      6C586324 
 2317 16c8 21106200 		addu	$2,$3,$2
 2318 16cc 0000438C 		lw	$3,0($2)
 2319 16d0 04006018 		blez	$3,$L148
 2319      00000000 
 2320              	$LM234:
 2321              		.stabn 68,0,564,$LM234
 2322 16d8 04000224 		li	$2,4			# 0x4
 2323 16dc 43000010 		b	$L141
 2323      00000000 
 2324              		.p2align 2
 2325              	$L148:
 2326              	$LM235:
 2327              		.stabn 68,0,569,$LM235
 2328 16e4 0000C38F 		lw	$3,0($fp)
 2329 16e8 FF036230 		andi	$2,$3,0x3ff
 2330 16ec 58000324 		li	$3,88			# 0x58
 2331 16f0 18104300 		mult	$2,$2,$3
 2332 16f4 0000033C 		la	$3,nsl+22596
 2332      44586324 
 2333 16fc 21106200 		addu	$2,$3,$2
 2334 1700 0000438C 		lw	$3,0($2)
 2335 1704 18006010 		beq	$3,$0,$L149
 2335      00000000 
 2336 170c 0000C38F 		lw	$3,0($fp)
 2337 1710 FF036230 		andi	$2,$3,0x3ff
 2338 1714 58000324 		li	$3,88			# 0x58
 2339 1718 18104300 		mult	$2,$2,$3
 2340 171c 0000033C 		la	$3,nsl+22608
 2340      50586324 
 2341 1724 21106200 		addu	$2,$3,$2
 2342 1728 0000438C 		lw	$3,0($2)
 2343 172c 0E006010 		beq	$3,$0,$L149
 2343      00000000 
 2344 1734 0000C38F 		lw	$3,0($fp)
 2345 1738 FF036230 		andi	$2,$3,0x3ff
 2346 173c 58000324 		li	$3,88			# 0x58
 2347 1740 18104300 		mult	$2,$2,$3
 2348 1744 0000033C 		la	$3,nsl+22636
 2348      6C586324 
 2349 174c 21106200 		addu	$2,$3,$2
 2350 1750 0000438C 		lw	$3,0($2)
 2351 1754 0400601C 		bgtz	$3,$L149
 2351      00000000 
 2352              	$LM236:
 2353              		.stabn 68,0,570,$LM236
 2354 175c 03000224 		li	$2,3			# 0x3
 2355 1760 22000010 		b	$L141
 2355      00000000 
 2356              		.p2align 2
GAS LISTING C:\DOCUME~1\Schmidt\LOCALS~1\Temp\ccKmaaaa.s 			page 49


 2357              	$L149:
 2358              	$LM237:
 2359              		.stabn 68,0,574,$LM237
 2360 1768 0000C38F 		lw	$3,0($fp)
 2361 176c FF036230 		andi	$2,$3,0x3ff
 2362 1770 58000324 		li	$3,88			# 0x58
 2363 1774 18104300 		mult	$2,$2,$3
 2364 1778 0000033C 		la	$3,nsl+22592
 2364      40586324 
 2365 1780 21106200 		addu	$2,$3,$2
 2366 1784 0000438C 		lw	$3,0($2)
 2367 1788 04006010 		beq	$3,$0,$L150
 2367      00000000 
 2368              	$LM238:
 2369              		.stabn 68,0,575,$LM238
 2370 1790 02000224 		li	$2,2			# 0x2
 2371 1794 15000010 		b	$L141
 2371      00000000 
 2372              		.p2align 2
 2373              	$L150:
 2374              	$LM239:
 2375              		.stabn 68,0,579,$LM239
 2376 179c 0000C38F 		lw	$3,0($fp)
 2377 17a0 FF036230 		andi	$2,$3,0x3ff
 2378 17a4 58000324 		li	$3,88			# 0x58
 2379 17a8 18104300 		mult	$2,$2,$3
 2380 17ac 0000033C 		la	$3,nsl+22620
 2380      5C586324 
 2381 17b4 21106200 		addu	$2,$3,$2
 2382 17b8 0000438C 		lw	$3,0($2)
 2383 17bc 04006010 		beq	$3,$0,$L151
 2383      00000000 
 2384              	$LM240:
 2385              		.stabn 68,0,580,$LM240
 2386 17c4 01000224 		li	$2,1			# 0x1
 2387 17c8 08000010 		b	$L141
 2387      00000000 
 2388              		.p2align 2
 2389              	$L151:
 2390              	$LM241:
 2391              		.stabn 68,0,582,$LM241
 2392 17d0 2D100000 		move	$2,$0
 2393 17d4 05000010 		b	$L141
 2393      00000000 
 2394              	$LBE26:
 2395 17dc 03000010 		b	$L152
 2395      00000000 
 2396 17e4 01000010 		b	$L141
 2396      00000000 
 2397              		.p2align 2
 2398              	$L152:
 2399              	$LM242:
 2400              		.stabn 68,0,583,$LM242
 2401              	$L141:
 2402 17ec 2DE8C003 		move	$sp,$fp
 2403 17f0 2000BFDF 		ld	$31,32($sp)
 2404 17f4 1000BEDF 		ld	$fp,16($sp)
GAS LISTING C:\DOCUME~1\Schmidt\LOCALS~1\Temp\ccKmaaaa.s 			page 50


 2405 17f8 3000BD27 		addu	$sp,$sp,48
 2406 17fc 0800E003 		j	$31
 2406      00000000 
 2407              		.end	nslGetSoundStatus__FUi
 2408              	$LFE14:
 2409              	.stabs "nslGetSoundStatus__FUi:F53",36,0,540,nslGetSoundStatus__FUi
 2410              	.stabs "whichSound:p42",160,0,540,-48
 2411              	.stabs "checkSlot:42",128,0,548,-44
 2412              	.stabs "upCheckId:42",128,0,549,-40
 2413              	.stabn 192,0,0,$LBB26
 2414              	.stabn 224,0,0,$LBE26
 2415              	$Lscope13:
 2416              	.stabs "",36,0,0,$Lscope13-nslGetSoundStatus__FUi
 2417 1804 00000000 		.p2align 3
 2418              		.globl	nslIsSoundPlaying__FUi
 2419              	$LFB15:
 2420              	$LM243:
 2421              		.stabn 68,0,589,$LM243
 2422              	.stabs "nsl_ps2_sound.cpp",132,0,0,$Ltext0
 2423              		.ent	nslIsSoundPlaying__FUi
 2424              	nslIsSoundPlaying__FUi:
 2425              		.frame	$fp,48,$31		# vars= 16, regs= 4/0, args= 0, extra= 0
 2426              		.mask	0xc0000000,-16
 2427              		.fmask	0x00000000,0
 2428 1808 D0FFBD27 		subu	$sp,$sp,48
 2429              	$LCFI56:
 2430 180c 2000BFFF 		sd	$31,32($sp)
 2431              	$LCFI57:
 2432 1810 1000BEFF 		sd	$fp,16($sp)
 2433              	$LCFI58:
 2434 1814 2DF0A003 		move	$fp,$sp
 2435              	$LCFI59:
 2436 1818 0000C4AF 		sw	$4,0($fp)
 2437              	$LM244:
 2438              		.stabn 68,0,589,$LM244
 2439              	$LBB27:
 2440              	$LM245:
 2441              		.stabn 68,0,590,$LM245
 2442 181c 0000C48F 		lw	$4,0($fp)
 2443 1820 6A05000C 		jal	nslGetSoundStatus__FUi
 2443      00000000 
 2444 1828 03004438 		xori	$4,$2,0x3
 2445 182c 0100832C 		sltu	$3,$4,1
 2446 1830 2D106000 		move	$2,$3
 2447 1834 05000010 		b	$L153
 2447      00000000 
 2448              	$LBE27:
 2449 183c 03000010 		b	$L154
 2449      00000000 
 2450 1844 01000010 		b	$L153
 2450      00000000 
 2451              		.p2align 2
 2452              	$L154:
 2453              	$LM246:
 2454              		.stabn 68,0,591,$LM246
 2455              	$L153:
 2456 184c 2DE8C003 		move	$sp,$fp
GAS LISTING C:\DOCUME~1\Schmidt\LOCALS~1\Temp\ccKmaaaa.s 			page 51


 2457 1850 2000BFDF 		ld	$31,32($sp)
 2458 1854 1000BEDF 		ld	$fp,16($sp)
 2459 1858 3000BD27 		addu	$sp,$sp,48
 2460 185c 0800E003 		j	$31
 2460      00000000 
 2461              		.end	nslIsSoundPlaying__FUi
 2462              	$LFE15:
 2463              	.stabs "nslIsSoundPlaying__FUi:F21",36,0,589,nslIsSoundPlaying__FUi
 2464              	.stabs "whichSound:p42",160,0,589,-48
 2465              	.stabn 192,0,0,$LBB27
 2466              	.stabn 224,0,0,$LBE27
 2467              	$Lscope14:
 2468              	.stabs "",36,0,0,$Lscope14-nslIsSoundPlaying__FUi
 2469 1864 00000000 		.p2align 3
 2470              		.globl	nslIsSoundReady__FUi
 2471              	$LFB16:
 2472              	$LM247:
 2473              		.stabn 68,0,597,$LM247
 2474              	.stabs "nsl_ps2_sound.cpp",132,0,0,$Ltext0
 2475              		.ent	nslIsSoundReady__FUi
 2476              	nslIsSoundReady__FUi:
 2477              		.frame	$fp,48,$31		# vars= 16, regs= 4/0, args= 0, extra= 0
 2478              		.mask	0xc0000000,-16
 2479              		.fmask	0x00000000,0
 2480 1868 D0FFBD27 		subu	$sp,$sp,48
 2481              	$LCFI60:
 2482 186c 2000BFFF 		sd	$31,32($sp)
 2483              	$LCFI61:
 2484 1870 1000BEFF 		sd	$fp,16($sp)
 2485              	$LCFI62:
 2486 1874 2DF0A003 		move	$fp,$sp
 2487              	$LCFI63:
 2488 1878 0000C4AF 		sw	$4,0($fp)
 2489              	$LM248:
 2490              		.stabn 68,0,597,$LM248
 2491              	$LBB28:
 2492              	$LM249:
 2493              		.stabn 68,0,598,$LM249
 2494 187c 0000C48F 		lw	$4,0($fp)
 2495 1880 6A05000C 		jal	nslGetSoundStatus__FUi
 2495      00000000 
 2496 1888 02004438 		xori	$4,$2,0x2
 2497 188c 0100832C 		sltu	$3,$4,1
 2498 1890 2D106000 		move	$2,$3
 2499 1894 05000010 		b	$L155
 2499      00000000 
 2500              	$LBE28:
 2501 189c 03000010 		b	$L156
 2501      00000000 
 2502 18a4 01000010 		b	$L155
 2502      00000000 
 2503              		.p2align 2
 2504              	$L156:
 2505              	$LM250:
 2506              		.stabn 68,0,599,$LM250
 2507              	$L155:
 2508 18ac 2DE8C003 		move	$sp,$fp
GAS LISTING C:\DOCUME~1\Schmidt\LOCALS~1\Temp\ccKmaaaa.s 			page 52


 2509 18b0 2000BFDF 		ld	$31,32($sp)
 2510 18b4 1000BEDF 		ld	$fp,16($sp)
 2511 18b8 3000BD27 		addu	$sp,$sp,48
 2512 18bc 0800E003 		j	$31
 2512      00000000 
 2513              		.end	nslIsSoundReady__FUi
 2514              	$LFE16:
 2515              	.stabs "nslIsSoundReady__FUi:F21",36,0,597,nslIsSoundReady__FUi
 2516              	.stabs "whichSound:p42",160,0,597,-48
 2517              	.stabn 192,0,0,$LBB28
 2518              	.stabn 224,0,0,$LBE28
 2519              	$Lscope15:
 2520              	.stabs "",36,0,0,$Lscope15-nslIsSoundReady__FUi
 2521 18c4 00000000 		.p2align 3
 2522              		.globl	nslSetSoundParam__FUi18_nslSoundParamEnumf
 2523              	$LFB17:
 2524              	$LM251:
 2525              		.stabn 68,0,652,$LM251
 2526              	.stabs "nsl_ps2_sound.cpp",132,0,0,$Ltext0
 2527              		.ent	nslSetSoundParam__FUi18_nslSoundParamEnumf
 2528              	nslSetSoundParam__FUi18_nslSoundParamEnumf:
 2529              		.frame	$fp,48,$31		# vars= 16, regs= 4/0, args= 0, extra= 0
 2530              		.mask	0xc0000000,-16
 2531              		.fmask	0x00000000,0
 2532 18c8 D0FFBD27 		subu	$sp,$sp,48
 2533              	$LCFI64:
 2534 18cc 2000BFFF 		sd	$31,32($sp)
 2535              	$LCFI65:
 2536 18d0 1000BEFF 		sd	$fp,16($sp)
 2537              	$LCFI66:
 2538 18d4 2DF0A003 		move	$fp,$sp
 2539              	$LCFI67:
 2540 18d8 0000C4AF 		sw	$4,0($fp)
 2541 18dc 0400C5AF 		sw	$5,4($fp)
 2542 18e0 0800CCE7 		s.s	$f12,8($fp)
 2543              	$LM252:
 2544              		.stabn 68,0,652,$LM252
 2545              	$LBB29:
 2546              	$LM253:
 2547              		.stabn 68,0,653,$LM253
 2548 18e4 0100023C 		lw	$2,nsl+61560
 2548      78F0428C 
 2549 18ec 03004014 		bne	$2,$0,$L158
 2549      00000000 
 2550 18f4 58000010 		b	$L157
 2550      00000000 
 2551              		.p2align 2
 2552              	$L158:
 2553              	$LM254:
 2554              		.stabn 68,0,654,$LM254
 2555 18fc 0000000C 		jal	_nslInitialized__Fv
 2555      00000000 
 2556              	$LM255:
 2557              		.stabn 68,0,655,$LM255
 2558 1904 0000C38F 		lw	$3,0($fp)
 2559 1908 FF036230 		andi	$2,$3,0x3ff
 2560 190c 58000324 		li	$3,88			# 0x58
GAS LISTING C:\DOCUME~1\Schmidt\LOCALS~1\Temp\ccKmaaaa.s 			page 53


 2561 1910 18104300 		mult	$2,$2,$3
 2562 1914 0000033C 		la	$3,nsl+22648
 2562      78586324 
 2563 191c 21106200 		addu	$2,$3,$2
 2564 1920 0000448C 		lw	$4,0($2)
 2565 1924 0000000C 		jal	_nslCheckSourceIdValidity__FUi
 2565      00000000 
 2566              	$LM256:
 2567              		.stabn 68,0,656,$LM256
 2568 192c 0000C48F 		lw	$4,0($fp)
 2569 1930 0000000C 		jal	_nslCheckSoundIdValidity__FUi
 2569      00000000 
 2570              	$LM257:
 2571              		.stabn 68,0,658,$LM257
 2572 1938 0400C28F 		lw	$2,4($fp)
 2573 193c 01000324 		li	$3,1			# 0x1
 2574 1940 1B004310 		beq	$2,$3,$L161
 2574      00000000 
 2575 1948 02004328 		slt	$3,$2,2
 2576 194c 05006010 		beq	$3,$0,$L166
 2576      00000000 
 2577 1954 0B004010 		beq	$2,$0,$L160
 2577      00000000 
 2578 195c 35000010 		b	$L164
 2578      00000000 
 2579              		.p2align 2
 2580              	$L166:
 2581 1964 02000324 		li	$3,2			# 0x2
 2582 1968 1C004310 		beq	$2,$3,$L162
 2582      00000000 
 2583 1970 03000324 		li	$3,3			# 0x3
 2584 1974 24004310 		beq	$2,$3,$L163
 2584      00000000 
 2585 197c 2D000010 		b	$L164
 2585      00000000 
 2586              		.p2align 2
 2587              	$L160:
 2588              	$LM258:
 2589              		.stabn 68,0,660,$LM258
 2590 1984 0000C38F 		lw	$3,0($fp)
 2591 1988 FF036230 		andi	$2,$3,0x3ff
 2592 198c 58000324 		li	$3,88			# 0x58
 2593 1990 18104300 		mult	$2,$2,$3
 2594 1994 0000033C 		la	$3,nsl+22656
 2594      80586324 
 2595 199c 21106200 		addu	$2,$3,$2
 2596 19a0 0800C0C7 		l.s	$f0,8($fp)
 2597 19a4 000040E4 		s.s	$f0,0($2)
 2598 19a8 27000010 		b	$L159
 2598      00000000 
 2599              		.p2align 2
 2600              	$L161:
 2601              	$LM259:
 2602              		.stabn 68,0,662,$LM259
 2603 19b0 0000C38F 		lw	$3,0($fp)
 2604 19b4 FF036230 		andi	$2,$3,0x3ff
 2605 19b8 58000324 		li	$3,88			# 0x58
GAS LISTING C:\DOCUME~1\Schmidt\LOCALS~1\Temp\ccKmaaaa.s 			page 54


 2606 19bc 18104300 		mult	$2,$2,$3
 2607 19c0 0000033C 		la	$3,nsl+22668
 2607      8C586324 
 2608 19c8 21106200 		addu	$2,$3,$2
 2609 19cc 0800C0C7 		l.s	$f0,8($fp)
 2610 19d0 000040E4 		s.s	$f0,0($2)
 2611 19d4 1C000010 		b	$L159
 2611      00000000 
 2612              		.p2align 2
 2613              	$L162:
 2614              	$LM260:
 2615              		.stabn 68,0,664,$LM260
 2616 19dc 0000C38F 		lw	$3,0($fp)
 2617 19e0 FF036230 		andi	$2,$3,0x3ff
 2618 19e4 58000324 		li	$3,88			# 0x58
 2619 19e8 18104300 		mult	$2,$2,$3
 2620 19ec 0000033C 		la	$3,nsl+22672
 2620      90586324 
 2621 19f4 21106200 		addu	$2,$3,$2
 2622 19f8 0800C0C7 		l.s	$f0,8($fp)
 2623 19fc 000040E4 		s.s	$f0,0($2)
 2624 1a00 11000010 		b	$L159
 2624      00000000 
 2625              		.p2align 2
 2626              	$L163:
 2627              	$LM261:
 2628              		.stabn 68,0,666,$LM261
 2629 1a08 0000C38F 		lw	$3,0($fp)
 2630 1a0c FF036230 		andi	$2,$3,0x3ff
 2631 1a10 58000324 		li	$3,88			# 0x58
 2632 1a14 18104300 		mult	$2,$2,$3
 2633 1a18 0000033C 		la	$3,nsl+22676
 2633      94586324 
 2634 1a20 21106200 		addu	$2,$3,$2
 2635 1a24 0800C0C7 		l.s	$f0,8($fp)
 2636 1a28 000040E4 		s.s	$f0,0($2)
 2637 1a2c 06000010 		b	$L159
 2637      00000000 
 2638              		.p2align 2
 2639              	$L164:
 2640              	$LM262:
 2641              		.stabn 68,0,667,$LM262
 2642 1a34 2D200000 		move	$4,$0
 2643 1a38 0000000C 		jal	nslFatal__FPCce
 2643      00000000 
 2644 1a40 01000010 		b	$L159
 2644      00000000 
 2645              		.p2align 2
 2646              	$L159:
 2647              	$LBE29:
 2648 1a48 03000010 		b	$L167
 2648      00000000 
 2649 1a50 01000010 		b	$L157
 2649      00000000 
 2650              		.p2align 2
 2651              	$L167:
 2652              	$LM263:
GAS LISTING C:\DOCUME~1\Schmidt\LOCALS~1\Temp\ccKmaaaa.s 			page 55


 2653              		.stabn 68,0,669,$LM263
 2654              	$L157:
 2655 1a58 2DE8C003 		move	$sp,$fp
 2656 1a5c 2000BFDF 		ld	$31,32($sp)
 2657 1a60 1000BEDF 		ld	$fp,16($sp)
 2658 1a64 3000BD27 		addu	$sp,$sp,48
 2659 1a68 0800E003 		j	$31
 2659      00000000 
 2660              		.end	nslSetSoundParam__FUi18_nslSoundParamEnumf
 2661              	$LFE17:
 2662              	.stabs "nslSetSoundParam__FUi18_nslSoundParamEnumf:F22",36,0,652,nslSetSoundParam__FUi18_nslSoundPa
 2663              	.stabs "soundToSet:p42",160,0,652,-48
 2664              	.stabs "whichParam:p51",160,0,652,-44
 2665              	.stabs "newVal:p14",160,0,652,-40
 2666              	.stabn 192,0,0,$LBB29
 2667              	.stabn 224,0,0,$LBE29
 2668              	$Lscope16:
 2669              	.stabs "",36,0,0,$Lscope16-nslSetSoundParam__FUi18_nslSoundParamEnumf
 2670              		.p2align 3
 2671              		.globl	nslGetSoundParam__FUi18_nslSoundParamEnum
 2672              	$LFB18:
 2673              	$LM264:
 2674              		.stabn 68,0,676,$LM264
 2675              	.stabs "nsl_ps2_sound.cpp",132,0,0,$Ltext0
 2676              		.ent	nslGetSoundParam__FUi18_nslSoundParamEnum
 2677              	nslGetSoundParam__FUi18_nslSoundParamEnum:
 2678              		.frame	$fp,48,$31		# vars= 16, regs= 4/0, args= 0, extra= 0
 2679              		.mask	0xc0000000,-16
 2680              		.fmask	0x00000000,0
 2681 1a70 D0FFBD27 		subu	$sp,$sp,48
 2682              	$LCFI68:
 2683 1a74 2000BFFF 		sd	$31,32($sp)
 2684              	$LCFI69:
 2685 1a78 1000BEFF 		sd	$fp,16($sp)
 2686              	$LCFI70:
 2687 1a7c 2DF0A003 		move	$fp,$sp
 2688              	$LCFI71:
 2689 1a80 0000C4AF 		sw	$4,0($fp)
 2690 1a84 0400C5AF 		sw	$5,4($fp)
 2691              	$LM265:
 2692              		.stabn 68,0,676,$LM265
 2693              	$LBB30:
 2694              	$LM266:
 2695              		.stabn 68,0,678,$LM266
 2696 1a88 0100023C 		lw	$2,nsl+61560
 2696      78F0428C 
 2697 1a90 05004014 		bne	$2,$0,$L169
 2697      00000000 
 2698 1a98 803F013C 		li.s	$f0,1.00000000000000000000e0
 2698      00008144 
 2699 1aa0 59000010 		b	$L168
 2699      00000000 
 2700              		.p2align 2
 2701              	$L169:
 2702              	$LM267:
 2703              		.stabn 68,0,679,$LM267
 2704 1aa8 0000000C 		jal	_nslInitialized__Fv
GAS LISTING C:\DOCUME~1\Schmidt\LOCALS~1\Temp\ccKmaaaa.s 			page 56


 2704      00000000 
 2705              	$LM268:
 2706              		.stabn 68,0,681,$LM268
 2707 1ab0 0000C48F 		lw	$4,0($fp)
 2708 1ab4 0000000C 		jal	_nslCheckSoundIdValidity__FUi
 2708      00000000 
 2709              	$LM269:
 2710              		.stabn 68,0,682,$LM269
 2711 1abc 0400C28F 		lw	$2,4($fp)
 2712 1ac0 01000324 		li	$3,1			# 0x1
 2713 1ac4 1D004310 		beq	$2,$3,$L172
 2713      00000000 
 2714 1acc 02004328 		slt	$3,$2,2
 2715 1ad0 05006010 		beq	$3,$0,$L177
 2715      00000000 
 2716 1ad8 0B004010 		beq	$2,$0,$L171
 2716      00000000 
 2717 1ae0 3D000010 		b	$L175
 2717      00000000 
 2718              		.p2align 2
 2719              	$L177:
 2720 1ae8 02000324 		li	$3,2			# 0x2
 2721 1aec 20004310 		beq	$2,$3,$L173
 2721      00000000 
 2722 1af4 03000324 		li	$3,3			# 0x3
 2723 1af8 2A004310 		beq	$2,$3,$L174
 2723      00000000 
 2724 1b00 35000010 		b	$L175
 2724      00000000 
 2725              		.p2align 2
 2726              	$L171:
 2727              	$LM270:
 2728              		.stabn 68,0,684,$LM270
 2729 1b08 0000C38F 		lw	$3,0($fp)
 2730 1b0c FF036230 		andi	$2,$3,0x3ff
 2731 1b10 58000324 		li	$3,88			# 0x58
 2732 1b14 18104300 		mult	$2,$2,$3
 2733 1b18 0000033C 		la	$3,nsl+22656
 2733      80586324 
 2734 1b20 21106200 		addu	$2,$3,$2
 2735 1b24 000041C4 		l.s	$f1,0($2)
 2736 1b28 06080046 		mov.s	$f0,$f1
 2737 1b2c 36000010 		b	$L168
 2737      00000000 
 2738 1b34 2D000010 		b	$L170
 2738      00000000 
 2739              		.p2align 2
 2740              	$L172:
 2741              	$LM271:
 2742              		.stabn 68,0,686,$LM271
 2743 1b3c 0000C38F 		lw	$3,0($fp)
 2744 1b40 FF036230 		andi	$2,$3,0x3ff
 2745 1b44 58000324 		li	$3,88			# 0x58
 2746 1b48 18104300 		mult	$2,$2,$3
 2747 1b4c 0000033C 		la	$3,nsl+22668
 2747      8C586324 
 2748 1b54 21106200 		addu	$2,$3,$2
GAS LISTING C:\DOCUME~1\Schmidt\LOCALS~1\Temp\ccKmaaaa.s 			page 57


 2749 1b58 000041C4 		l.s	$f1,0($2)
 2750 1b5c 06080046 		mov.s	$f0,$f1
 2751 1b60 29000010 		b	$L168
 2751      00000000 
 2752 1b68 20000010 		b	$L170
 2752      00000000 
 2753              		.p2align 2
 2754              	$L173:
 2755              	$LM272:
 2756              		.stabn 68,0,688,$LM272
 2757 1b70 0000C38F 		lw	$3,0($fp)
 2758 1b74 FF036230 		andi	$2,$3,0x3ff
 2759 1b78 58000324 		li	$3,88			# 0x58
 2760 1b7c 18104300 		mult	$2,$2,$3
 2761 1b80 0000033C 		la	$3,nsl+22672
 2761      90586324 
 2762 1b88 21106200 		addu	$2,$3,$2
 2763 1b8c 000041C4 		l.s	$f1,0($2)
 2764 1b90 06080046 		mov.s	$f0,$f1
 2765 1b94 1C000010 		b	$L168
 2765      00000000 
 2766 1b9c 13000010 		b	$L170
 2766      00000000 
 2767              		.p2align 2
 2768              	$L174:
 2769              	$LM273:
 2770              		.stabn 68,0,690,$LM273
 2771 1ba4 0000C38F 		lw	$3,0($fp)
 2772 1ba8 FF036230 		andi	$2,$3,0x3ff
 2773 1bac 58000324 		li	$3,88			# 0x58
 2774 1bb0 18104300 		mult	$2,$2,$3
 2775 1bb4 0000033C 		la	$3,nsl+22676
 2775      94586324 
 2776 1bbc 21106200 		addu	$2,$3,$2
 2777 1bc0 000041C4 		l.s	$f1,0($2)
 2778 1bc4 06080046 		mov.s	$f0,$f1
 2779 1bc8 0F000010 		b	$L168
 2779      00000000 
 2780 1bd0 06000010 		b	$L170
 2780      00000000 
 2781              		.p2align 2
 2782              	$L175:
 2783              	$LM274:
 2784              		.stabn 68,0,691,$LM274
 2785 1bd8 2D200000 		move	$4,$0
 2786 1bdc 0000000C 		jal	nslFatal__FPCce
 2786      00000000 
 2787 1be4 01000010 		b	$L170
 2787      00000000 
 2788              		.p2align 2
 2789              	$L170:
 2790              	$LM275:
 2791              		.stabn 68,0,693,$LM275
 2792 1bec 00008044 		mtc1	$0,$f0
 2793 1bf0 05000010 		b	$L168
 2793      00000000 
 2794              	$LBE30:
GAS LISTING C:\DOCUME~1\Schmidt\LOCALS~1\Temp\ccKmaaaa.s 			page 58


 2795 1bf8 03000010 		b	$L178
 2795      00000000 
 2796 1c00 01000010 		b	$L168
 2796      00000000 
 2797              		.p2align 2
 2798              	$L178:
 2799              	$LM276:
 2800              		.stabn 68,0,694,$LM276
 2801              	$L168:
 2802 1c08 2DE8C003 		move	$sp,$fp
 2803 1c0c 2000BFDF 		ld	$31,32($sp)
 2804 1c10 1000BEDF 		ld	$fp,16($sp)
 2805 1c14 3000BD27 		addu	$sp,$sp,48
 2806 1c18 0800E003 		j	$31
 2806      00000000 
 2807              		.end	nslGetSoundParam__FUi18_nslSoundParamEnum
 2808              	$LFE18:
 2809              	.stabs "nslGetSoundParam__FUi18_nslSoundParamEnum:F14",36,0,676,nslGetSoundParam__FUi18_nslSoundPar
 2810              	.stabs "whichSound:p42",160,0,676,-48
 2811              	.stabs "whichParam:p51",160,0,676,-44
 2812              	.stabn 192,0,0,$LBB30
 2813              	.stabn 224,0,0,$LBE30
 2814              	$Lscope17:
 2815              	.stabs "",36,0,0,$Lscope17-nslGetSoundParam__FUi18_nslSoundParamEnum
 2816              		.p2align 3
 2817              		.globl	nslSetSoundRange__FUiff
 2818              	$LFB19:
 2819              	$LM277:
 2820              		.stabn 68,0,701,$LM277
 2821              	.stabs "nsl_ps2_sound.cpp",132,0,0,$Ltext0
 2822              		.ent	nslSetSoundRange__FUiff
 2823              	nslSetSoundRange__FUiff:
 2824              		.frame	$fp,48,$31		# vars= 16, regs= 4/0, args= 0, extra= 0
 2825              		.mask	0xc0000000,-16
 2826              		.fmask	0x00000000,0
 2827 1c20 D0FFBD27 		subu	$sp,$sp,48
 2828              	$LCFI72:
 2829 1c24 2000BFFF 		sd	$31,32($sp)
 2830              	$LCFI73:
 2831 1c28 1000BEFF 		sd	$fp,16($sp)
 2832              	$LCFI74:
 2833 1c2c 2DF0A003 		move	$fp,$sp
 2834              	$LCFI75:
 2835 1c30 0000C4AF 		sw	$4,0($fp)
 2836 1c34 0400CCE7 		s.s	$f12,4($fp)
 2837 1c38 0800CDE7 		s.s	$f13,8($fp)
 2838              	$LM278:
 2839              		.stabn 68,0,701,$LM278
 2840              	$LBB31:
 2841              	$LM279:
 2842              		.stabn 68,0,702,$LM279
 2843 1c3c 0100023C 		lw	$2,nsl+61560
 2843      78F0428C 
 2844 1c44 03004014 		bne	$2,$0,$L180
 2844      00000000 
 2845 1c4c 1C000010 		b	$L179
 2845      00000000 
GAS LISTING C:\DOCUME~1\Schmidt\LOCALS~1\Temp\ccKmaaaa.s 			page 59


 2846              		.p2align 2
 2847              	$L180:
 2848              	$LM280:
 2849              		.stabn 68,0,704,$LM280
 2850 1c54 0000000C 		jal	_nslInitialized__Fv
 2850      00000000 
 2851              	$LM281:
 2852              		.stabn 68,0,707,$LM281
 2853 1c5c 0000C48F 		lw	$4,0($fp)
 2854 1c60 0000000C 		jal	_nslCheckSoundIdValidity__FUi
 2854      00000000 
 2855              	$LM282:
 2856              		.stabn 68,0,708,$LM282
 2857 1c68 0000C38F 		lw	$3,0($fp)
 2858 1c6c FF036230 		andi	$2,$3,0x3ff
 2859 1c70 58000324 		li	$3,88			# 0x58
 2860 1c74 18104300 		mult	$2,$2,$3
 2861 1c78 0000033C 		la	$3,nsl+22672
 2861      90586324 
 2862 1c80 21106200 		addu	$2,$3,$2
 2863 1c84 0400C0C7 		l.s	$f0,4($fp)
 2864 1c88 000040E4 		s.s	$f0,0($2)
 2865              	$LM283:
 2866              		.stabn 68,0,709,$LM283
 2867 1c8c 0000C38F 		lw	$3,0($fp)
 2868 1c90 FF036230 		andi	$2,$3,0x3ff
 2869 1c94 58000324 		li	$3,88			# 0x58
 2870 1c98 18104300 		mult	$2,$2,$3
 2871 1c9c 0000033C 		la	$3,nsl+22676
 2871      94586324 
 2872 1ca4 21106200 		addu	$2,$3,$2
 2873 1ca8 0800C0C7 		l.s	$f0,8($fp)
 2874 1cac 000040E4 		s.s	$f0,0($2)
 2875              	$LBE31:
 2876 1cb0 03000010 		b	$L181
 2876      00000000 
 2877 1cb8 01000010 		b	$L179
 2877      00000000 
 2878              		.p2align 2
 2879              	$L181:
 2880              	$LM284:
 2881              		.stabn 68,0,711,$LM284
 2882              	$L179:
 2883 1cc0 2DE8C003 		move	$sp,$fp
 2884 1cc4 2000BFDF 		ld	$31,32($sp)
 2885 1cc8 1000BEDF 		ld	$fp,16($sp)
 2886 1ccc 3000BD27 		addu	$sp,$sp,48
 2887 1cd0 0800E003 		j	$31
 2887      00000000 
 2888              		.end	nslSetSoundRange__FUiff
 2889              	$LFE19:
 2890              	.stabs "nslSetSoundRange__FUiff:F22",36,0,701,nslSetSoundRange__FUiff
 2891              	.stabs "soundToSet:p42",160,0,701,-48
 2892              	.stabs "minDist:p14",160,0,701,-44
 2893              	.stabs "maxDist:p14",160,0,701,-40
 2894              	.stabn 192,0,0,$LBB31
 2895              	.stabn 224,0,0,$LBE31
GAS LISTING C:\DOCUME~1\Schmidt\LOCALS~1\Temp\ccKmaaaa.s 			page 60


 2896              	$Lscope18:
 2897              	.stabs "",36,0,0,$Lscope18-nslSetSoundRange__FUiff
 2898              		.rdata
 2899 01f6 0000     		.align	3
 2900              	$LC13:
 2901 01f8 576F6168 		.ascii	"Woah, setting position on a sound without an emitter?  N"
 2901      2C207365 
 2901      7474696E 
 2901      6720706F 
 2901      73697469 
 2902 0230 65772065 		.ascii	"ew emitter (0x%x), sound (0x%x)\n\000"
 2902      6D697474 
 2902      65722028 
 2902      30782578 
 2902      292C2073 
 2903              		.text
 2904              		.p2align 3
 2905              		.globl	nslSetSoundPosition__FUiRA2_Cf
 2906              	$LFB20:
 2907              	$LM285:
 2908              		.stabn 68,0,717,$LM285
 2909              	.stabs "nsl_ps2_sound.cpp",132,0,0,$Ltext0
 2910              		.ent	nslSetSoundPosition__FUiRA2_Cf
 2911              	nslSetSoundPosition__FUiRA2_Cf:
 2912              		.frame	$fp,48,$31		# vars= 16, regs= 4/0, args= 0, extra= 0
 2913              		.mask	0xc0000000,-16
 2914              		.fmask	0x00000000,0
 2915 1cd8 D0FFBD27 		subu	$sp,$sp,48
 2916              	$LCFI76:
 2917 1cdc 2000BFFF 		sd	$31,32($sp)
 2918              	$LCFI77:
 2919 1ce0 1000BEFF 		sd	$fp,16($sp)
 2920              	$LCFI78:
 2921 1ce4 2DF0A003 		move	$fp,$sp
 2922              	$LCFI79:
 2923 1ce8 0000C4AF 		sw	$4,0($fp)
 2924 1cec 0400C5AF 		sw	$5,4($fp)
 2925              	$LM286:
 2926              		.stabn 68,0,717,$LM286
 2927              	$LBB32:
 2928              	$LM287:
 2929              		.stabn 68,0,718,$LM287
 2930 1cf0 0100023C 		lw	$2,nsl+61560
 2930      78F0428C 
 2931 1cf8 03004014 		bne	$2,$0,$L183
 2931      00000000 
 2932 1d00 30000010 		b	$L182
 2932      00000000 
 2933              		.p2align 2
 2934              	$L183:
 2935              	$LM288:
 2936              		.stabn 68,0,719,$LM288
 2937 1d08 0000000C 		jal	_nslInitialized__Fv
 2937      00000000 
 2938              	$LM289:
 2939              		.stabn 68,0,721,$LM289
 2940 1d10 0000C48F 		lw	$4,0($fp)
GAS LISTING C:\DOCUME~1\Schmidt\LOCALS~1\Temp\ccKmaaaa.s 			page 61


 2941 1d14 0000000C 		jal	_nslCheckSoundIdValidity__FUi
 2941      00000000 
 2942              	$LM290:
 2943              		.stabn 68,0,722,$LM290
 2944              	$LBB33:
 2945 1d1c 0000C38F 		lw	$3,0($fp)
 2946 1d20 FF036230 		andi	$2,$3,0x3ff
 2947 1d24 58000324 		li	$3,88			# 0x58
 2948 1d28 18104300 		mult	$2,$2,$3
 2949 1d2c 0000033C 		la	$3,nsl+22652
 2949      7C586324 
 2950 1d34 21106200 		addu	$2,$3,$2
 2951 1d38 0000438C 		lw	$3,0($2)
 2952 1d3c 12006014 		bne	$3,$0,$L184
 2952      00000000 
 2953              	$LM291:
 2954              		.stabn 68,0,723,$LM291
 2955              	$LBB34:
 2956              	$LM292:
 2957              		.stabn 68,0,724,$LM292
 2958 1d44 0400C48F 		lw	$4,4($fp)
 2959 1d48 0000000C 		jal	nslCreateEmitter__FRA2_Cf
 2959      00000000 
 2960 1d50 0800C2AF 		sw	$2,8($fp)
 2961              	$LM293:
 2962              		.stabn 68,0,726,$LM293
 2963 1d54 0000043C 		la	$4,$LC13
 2963      F8018424 
 2964 1d5c 0800C58F 		lw	$5,8($fp)
 2965 1d60 0000C68F 		lw	$6,0($fp)
 2966 1d64 0000000C 		jal	nslPrintf__FPCce
 2966      00000000 
 2967              	$LM294:
 2968              		.stabn 68,0,727,$LM294
 2969 1d6c 0800C48F 		lw	$4,8($fp)
 2970 1d70 0000000C 		jal	nslSetEmitterAutoRelease__FUi
 2970      00000000 
 2971              	$LM295:
 2972              		.stabn 68,0,728,$LM295
 2973 1d78 0800C48F 		lw	$4,8($fp)
 2974 1d7c 0000C58F 		lw	$5,0($fp)
 2975 1d80 0000000C 		jal	nslSetSoundEmitter__FUiUi
 2975      00000000 
 2976              	$LBE34:
 2977              	$L184:
 2978              	$LBE33:
 2979              	$LM296:
 2980              		.stabn 68,0,730,$LM296
 2981 1d88 0000C38F 		lw	$3,0($fp)
 2982 1d8c FF036230 		andi	$2,$3,0x3ff
 2983 1d90 58000324 		li	$3,88			# 0x58
 2984 1d94 18104300 		mult	$2,$2,$3
 2985 1d98 0000033C 		la	$3,nsl+22652
 2985      7C586324 
 2986 1da0 21106200 		addu	$2,$3,$2
 2987 1da4 0000448C 		lw	$4,0($2)
 2988 1da8 0400C58F 		lw	$5,4($fp)
GAS LISTING C:\DOCUME~1\Schmidt\LOCALS~1\Temp\ccKmaaaa.s 			page 62


 2989 1dac 0000000C 		jal	nslSetEmitterPosition__FUiRA2_Cf
 2989      00000000 
 2990              	$LBE32:
 2991 1db4 03000010 		b	$L185
 2991      00000000 
 2992 1dbc 01000010 		b	$L182
 2992      00000000 
 2993              		.p2align 2
 2994              	$L185:
 2995              	$LM297:
 2996              		.stabn 68,0,731,$LM297
 2997              	$L182:
 2998 1dc4 2DE8C003 		move	$sp,$fp
 2999 1dc8 2000BFDF 		ld	$31,32($sp)
 3000 1dcc 1000BEDF 		ld	$fp,16($sp)
 3001 1dd0 3000BD27 		addu	$sp,$sp,48
 3002 1dd4 0800E003 		j	$31
 3002      00000000 
 3003              		.end	nslSetSoundPosition__FUiRA2_Cf
 3004              	$LFE20:
 3005              	.stabs "nslSetSoundPosition__FUiRA2_Cf:F22",36,0,717,nslSetSoundPosition__FUiRA2_Cf
 3006              	.stabs "soundToSet:p42",160,0,717,-48
 3007              	.stabs "pos:p290",160,0,717,-44
 3008              	.stabn 192,0,0,$LBB32
 3009              	.stabn 192,0,0,$LBB33
 3010              	.stabs "newEmitter:43",128,0,724,-40
 3011              	.stabn 192,0,0,$LBB34
 3012              	.stabn 224,0,0,$LBE34
 3013              	.stabn 224,0,0,$LBE33
 3014              	.stabn 224,0,0,$LBE32
 3015              	$Lscope19:
 3016              	.stabs "",36,0,0,$Lscope19-nslSetSoundPosition__FUiRA2_Cf
 3017              		.globl	NSL_RIGHT_PAN_RATIO_TABLE
 3018              		.data
 3019              	.stabs "NSL_RIGHT_PAN_RATIO_TABLE:G291=ar1;0;359;14",32,0,743,0
 3020              		.align	3
 3021              		.type	 NSL_RIGHT_PAN_RATIO_TABLE,@object
 3022              		.size	 NSL_RIGHT_PAN_RATIO_TABLE,1440
 3023              	NSL_RIGHT_PAN_RATIO_TABLE:
 3024 0000 0000003F 		.word	0x3f000000		# 0.5 (float)
 3025 0004 E13B023F 		.word	0x3f023be1		# 0.5087261796 (float)
 3026 0008 9677043F 		.word	0x3f047796		# 0.517449736595 (float)
 3027 000c F2B2063F 		.word	0x3f06b2f2		# 0.526167988777 (float)
 3028 0010 C8ED083F 		.word	0x3f08edc8		# 0.534878253937 (float)
 3029 0014 EB270B3F 		.word	0x3f0b27eb		# 0.543577849865 (float)
 3030 0018 30610D3F 		.word	0x3f0d6130		# 0.552264213562 (float)
 3031 001c 6A990F3F 		.word	0x3f0f996a		# 0.560934662819 (float)
 3032 0020 6DD0113F 		.word	0x3f11d06d		# 0.569586575031 (float)
 3033 0024 0B06143F 		.word	0x3f14060b		# 0.578217208385 (float)
 3034 0028 1B3A163F 		.word	0x3f163a1b		# 0.586824119091 (float)
 3035 002c 6E6C183F 		.word	0x3f186c6e		# 0.59540450573 (float)
 3036 0030 DA9C1A3F 		.word	0x3f1a9cda		# 0.603955864906 (float)
 3037 0034 32CB1C3F 		.word	0x3f1ccb32		# 0.612475514412 (float)
 3038 0038 4CF71E3F 		.word	0x3f1ef74c		# 0.620960950851 (float)
 3039 003c FC20213F 		.word	0x3f2120fc		# 0.62940955162 (float)
 3040 0040 1648233F 		.word	0x3f234816		# 0.637818694115 (float)
 3041 0044 706C253F 		.word	0x3f256c70		# 0.646185874939 (float)
GAS LISTING C:\DOCUME~1\Schmidt\LOCALS~1\Temp\ccKmaaaa.s 			page 63


 3042 0048 DF8D273F 		.word	0x3f278ddf		# 0.654508531094 (float)
 3043 004c 38AC293F 		.word	0x3f29ac38		# 0.662784099579 (float)
 3044 0050 51C72B3F 		.word	0x3f2bc751		# 0.671010077 (float)
 3045 0054 00DF2D3F 		.word	0x3f2ddf00		# 0.679183959961 (float)
 3046 0058 1CF32F3F 		.word	0x3f2ff31c		# 0.687303304672 (float)
 3047 005c 7A03323F 		.word	0x3f32037a		# 0.695365548134 (float)
 3048 0060 F20F343F 		.word	0x3f340ff2		# 0.70336830616 (float)
 3049 0064 5B18363F 		.word	0x3f36185b		# 0.71130913496 (float)
 3050 0068 8C1C383F 		.word	0x3f381c8c		# 0.719185590744 (float)
 3051 006c 5C1C3A3F 		.word	0x3f3a1c5c		# 0.726995229721 (float)
 3052 0070 A5173C3F 		.word	0x3f3c17a5		# 0.734735786915 (float)
 3053 0074 3E0E3E3F 		.word	0x3f3e0e3e		# 0.742404818535 (float)
 3054 0078 0000403F 		.word	0x3f400000		# 0.75 (float)
 3055 007c C5EC413F 		.word	0x3f41ecc5		# 0.757519066334 (float)
 3056 0080 65D4433F 		.word	0x3f43d465		# 0.76495963335 (float)
 3057 0084 BBB6453F 		.word	0x3f45b6bb		# 0.772319495678 (float)
 3058 0088 A293473F 		.word	0x3f4793a2		# 0.779596447945 (float)
 3059 008c F46A493F 		.word	0x3f496af4		# 0.786788225174 (float)
 3060 0090 8C3C4B3F 		.word	0x3f4b3c8c		# 0.793892621994 (float)
 3061 0094 47084D3F 		.word	0x3f4d0847		# 0.800907552242 (float)
 3062 0098 FFCD4E3F 		.word	0x3f4ecdff		# 0.807830750942 (float)
 3063 009c 928D503F 		.word	0x3f508d92		# 0.814660191536 (float)
 3064 00a0 DE46523F 		.word	0x3f5246de		# 0.821393847466 (float)
 3065 00a4 BEF9533F 		.word	0x3f53f9be		# 0.828029513359 (float)
 3066 00a8 12A6553F 		.word	0x3f55a612		# 0.834565281868 (float)
 3067 00ac B94B573F 		.word	0x3f574bb9		# 0.840999186039 (float)
 3068 00b0 91EA583F 		.word	0x3f58ea91		# 0.847329199314 (float)
 3069 00b4 7A825A3F 		.word	0x3f5a827a		# 0.853553414345 (float)
 3070 00b8 54135C3F 		.word	0x3f5c1354		# 0.859669923782 (float)
 3071 00bc 009D5D3F 		.word	0x3f5d9d00		# 0.865676879883 (float)
 3072 00c0 5F1F5F3F 		.word	0x3f5f1f5f		# 0.871572434902 (float)
 3073 00c4 539A603F 		.word	0x3f609a53		# 0.877354800701 (float)
 3074 00c8 BF0D623F 		.word	0x3f620dbf		# 0.883022248745 (float)
 3075 00cc 8579633F 		.word	0x3f637985		# 0.888572990894 (float)
 3076 00d0 8ADD643F 		.word	0x3f64dd8a		# 0.894005417824 (float)
 3077 00d4 B039663F 		.word	0x3f6639b0		# 0.899317741394 (float)
 3078 00d8 DF8D673F 		.word	0x3f678ddf		# 0.904508531094 (float)
 3079 00dc FAD9683F 		.word	0x3f68d9fa		# 0.909576058388 (float)
 3080 00e0 E71D6A3F 		.word	0x3f6a1de7		# 0.914518773556 (float)
 3081 00e4 8F596B3F 		.word	0x3f6b598f		# 0.919335305691 (float)
 3082 00e8 D78C6C3F 		.word	0x3f6c8cd7		# 0.924024045467 (float)
 3083 00ec A9B76D3F 		.word	0x3f6db7a9		# 0.928583681583 (float)
 3084 00f0 ECD96E3F 		.word	0x3f6ed9ec		# 0.933012723923 (float)
 3085 00f4 8AF36F3F 		.word	0x3f6ff38a		# 0.937309861183 (float)
 3086 00f8 6E04713F 		.word	0x3f71046e		# 0.941473841667 (float)
 3087 00fc 800C723F 		.word	0x3f720c80		# 0.945503234863 (float)
 3088 0100 AF0B733F 		.word	0x3f730baf		# 0.949397027493 (float)
 3089 0104 E501743F 		.word	0x3f7401e5		# 0.953153908253 (float)
 3090 0108 0FEF743F 		.word	0x3f74ef0f		# 0.956772744656 (float)
 3091 010c 1BD3753F 		.word	0x3f75d31b		# 0.960252463818 (float)
 3092 0110 F6AD763F 		.word	0x3f76adf6		# 0.96359193325 (float)
 3093 0114 917F773F 		.word	0x3f777f91		# 0.966790258884 (float)
 3094 0118 D947783F 		.word	0x3f7847d9		# 0.969846308231 (float)
 3095 011c C106793F 		.word	0x3f7906c1		# 0.972759306431 (float)
 3096 0120 38BC793F 		.word	0x3f79bc38		# 0.975528240204 (float)
 3097 0124 32687A3F 		.word	0x3f7a6832		# 0.978152394295 (float)
 3098 0128 A00A7B3F 		.word	0x3f7b0aa0		# 0.980630874634 (float)
GAS LISTING C:\DOCUME~1\Schmidt\LOCALS~1\Temp\ccKmaaaa.s 			page 64


 3099 012c 75A37B3F 		.word	0x3f7ba375		# 0.982962906361 (float)
 3100 0130 A6327C3F 		.word	0x3f7c32a6		# 0.985147833824 (float)
 3101 0134 29B87C3F 		.word	0x3f7cb829		# 0.987185060978 (float)
 3102 0138 F1337D3F 		.word	0x3f7d33f1		# 0.989073812962 (float)
 3103 013c F6A57D3F 		.word	0x3f7da5f6		# 0.990813612938 (float)
 3104 0140 2E0E7E3F 		.word	0x3f7e0e2e		# 0.992403864861 (float)
 3105 0144 926C7E3F 		.word	0x3f7e6c92		# 0.993844151497 (float)
 3106 0148 1BC17E3F 		.word	0x3f7ec11b		# 0.995134055614 (float)
 3107 014c C10B7F3F 		.word	0x3f7f0bc1		# 0.996273100376 (float)
 3108 0150 7E4C7F3F 		.word	0x3f7f4c7e		# 0.997260928154 (float)
 3109 0154 4F837F3F 		.word	0x3f7f834f		# 0.998097360134 (float)
 3110 0158 2EB07F3F 		.word	0x3f7fb02e		# 0.998782038689 (float)
 3111 015c 18D37F3F 		.word	0x3f7fd318		# 0.999314785004 (float)
 3112 0160 0AEC7F3F 		.word	0x3f7fec0a		# 0.999695420265 (float)
 3113 0164 02FB7F3F 		.word	0x3f7ffb02		# 0.999923825264 (float)
 3114 0168 0000803F 		.word	0x3f800000		# 1 (float)
 3115 016c E9937E3F 		.word	0x3f7e93e9		# 0.994444429874 (float)
 3116 0170 D2277D3F 		.word	0x3f7d27d2		# 0.988888859749 (float)
 3117 0174 BCBB7B3F 		.word	0x3f7bbbbc		# 0.983333349228 (float)
 3118 0178 A54F7A3F 		.word	0x3f7a4fa5		# 0.977777779102 (float)
 3119 017c 8EE3783F 		.word	0x3f78e38e		# 0.972222208977 (float)
 3120 0180 7777773F 		.word	0x3f777777		# 0.966666638851 (float)
 3121 0184 610B763F 		.word	0x3f760b61		# 0.96111112833 (float)
 3122 0188 4A9F743F 		.word	0x3f749f4a		# 0.955555558205 (float)
 3123 018c 3333733F 		.word	0x3f733333		# 0.949999988079 (float)
 3124 0190 1CC7713F 		.word	0x3f71c71c		# 0.944444417953 (float)
 3125 0194 065B703F 		.word	0x3f705b06		# 0.938888907433 (float)
 3126 0198 EFEE6E3F 		.word	0x3f6eeeef		# 0.933333337307 (float)
 3127 019c D8826D3F 		.word	0x3f6d82d8		# 0.927777767181 (float)
 3128 01a0 C1166C3F 		.word	0x3f6c16c1		# 0.922222197056 (float)
 3129 01a4 ABAA6A3F 		.word	0x3f6aaaab		# 0.916666686535 (float)
 3130 01a8 943E693F 		.word	0x3f693e94		# 0.911111116409 (float)
 3131 01ac 7DD2673F 		.word	0x3f67d27d		# 0.905555546284 (float)
 3132 01b0 6666663F 		.word	0x3f666666		# 0.899999976158 (float)
 3133 01b4 50FA643F 		.word	0x3f64fa50		# 0.894444465637 (float)
 3134 01b8 398E633F 		.word	0x3f638e39		# 0.888888895512 (float)
 3135 01bc 2222623F 		.word	0x3f622222		# 0.883333325386 (float)
 3136 01c0 0BB6603F 		.word	0x3f60b60b		# 0.87777775526 (float)
 3137 01c4 F5495F3F 		.word	0x3f5f49f5		# 0.87222224474 (float)
 3138 01c8 DEDD5D3F 		.word	0x3f5dddde		# 0.866666674614 (float)
 3139 01cc C7715C3F 		.word	0x3f5c71c7		# 0.861111104488 (float)
 3140 01d0 B0055B3F 		.word	0x3f5b05b0		# 0.855555534363 (float)
 3141 01d4 9A99593F 		.word	0x3f59999a		# 0.850000023842 (float)
 3142 01d8 832D583F 		.word	0x3f582d83		# 0.844444453716 (float)
 3143 01dc 6CC1563F 		.word	0x3f56c16c		# 0.838888883591 (float)
 3144 01e0 5555553F 		.word	0x3f555555		# 0.833333313465 (float)
 3145 01e4 3FE9533F 		.word	0x3f53e93f		# 0.827777802944 (float)
 3146 01e8 287D523F 		.word	0x3f527d28		# 0.822222232819 (float)
 3147 01ec 1111513F 		.word	0x3f511111		# 0.816666662693 (float)
 3148 01f0 FAA44F3F 		.word	0x3f4fa4fa		# 0.811111092567 (float)
 3149 01f4 E4384E3F 		.word	0x3f4e38e4		# 0.805555582047 (float)
 3150 01f8 CDCC4C3F 		.word	0x3f4ccccd		# 0.800000011921 (float)
 3151 01fc B6604B3F 		.word	0x3f4b60b6		# 0.794444441795 (float)
 3152 0200 9FF4493F 		.word	0x3f49f49f		# 0.78888887167 (float)
 3153 0204 8988483F 		.word	0x3f488889		# 0.783333361149 (float)
 3154 0208 721C473F 		.word	0x3f471c72		# 0.777777791023 (float)
 3155 020c 5BB0453F 		.word	0x3f45b05b		# 0.772222220898 (float)
GAS LISTING C:\DOCUME~1\Schmidt\LOCALS~1\Temp\ccKmaaaa.s 			page 65


 3156 0210 4444443F 		.word	0x3f444444		# 0.766666650772 (float)
 3157 0214 2ED8423F 		.word	0x3f42d82e		# 0.761111140251 (float)
 3158 0218 176C413F 		.word	0x3f416c17		# 0.755555570126 (float)
 3159 021c 0000403F 		.word	0x3f400000		# 0.75 (float)
 3160 0220 E9933E3F 		.word	0x3f3e93e9		# 0.744444429874 (float)
 3161 0224 D2273D3F 		.word	0x3f3d27d2		# 0.738888859749 (float)
 3162 0228 BCBB3B3F 		.word	0x3f3bbbbc		# 0.733333349228 (float)
 3163 022c A54F3A3F 		.word	0x3f3a4fa5		# 0.727777779102 (float)
 3164 0230 8EE3383F 		.word	0x3f38e38e		# 0.722222208977 (float)
 3165 0234 7777373F 		.word	0x3f377777		# 0.716666638851 (float)
 3166 0238 610B363F 		.word	0x3f360b61		# 0.71111112833 (float)
 3167 023c 4A9F343F 		.word	0x3f349f4a		# 0.705555558205 (float)
 3168 0240 3333333F 		.word	0x3f333333		# 0.699999988079 (float)
 3169 0244 1CC7313F 		.word	0x3f31c71c		# 0.694444417953 (float)
 3170 0248 065B303F 		.word	0x3f305b06		# 0.688888907433 (float)
 3171 024c EFEE2E3F 		.word	0x3f2eeeef		# 0.683333337307 (float)
 3172 0250 D8822D3F 		.word	0x3f2d82d8		# 0.677777767181 (float)
 3173 0254 C1162C3F 		.word	0x3f2c16c1		# 0.672222197056 (float)
 3174 0258 ABAA2A3F 		.word	0x3f2aaaab		# 0.666666686535 (float)
 3175 025c 943E293F 		.word	0x3f293e94		# 0.661111116409 (float)
 3176 0260 7DD2273F 		.word	0x3f27d27d		# 0.655555546284 (float)
 3177 0264 6666263F 		.word	0x3f266666		# 0.649999976158 (float)
 3178 0268 50FA243F 		.word	0x3f24fa50		# 0.644444465637 (float)
 3179 026c 398E233F 		.word	0x3f238e39		# 0.638888895512 (float)
 3180 0270 2222223F 		.word	0x3f222222		# 0.633333325386 (float)
 3181 0274 0BB6203F 		.word	0x3f20b60b		# 0.62777775526 (float)
 3182 0278 F5491F3F 		.word	0x3f1f49f5		# 0.62222224474 (float)
 3183 027c DEDD1D3F 		.word	0x3f1dddde		# 0.616666674614 (float)
 3184 0280 C7711C3F 		.word	0x3f1c71c7		# 0.611111104488 (float)
 3185 0284 B0051B3F 		.word	0x3f1b05b0		# 0.605555534363 (float)
 3186 0288 9A99193F 		.word	0x3f19999a		# 0.600000023842 (float)
 3187 028c 832D183F 		.word	0x3f182d83		# 0.594444453716 (float)
 3188 0290 6CC1163F 		.word	0x3f16c16c		# 0.588888883591 (float)
 3189 0294 5555153F 		.word	0x3f155555		# 0.583333313465 (float)
 3190 0298 3FE9133F 		.word	0x3f13e93f		# 0.577777802944 (float)
 3191 029c 287D123F 		.word	0x3f127d28		# 0.572222232819 (float)
 3192 02a0 1111113F 		.word	0x3f111111		# 0.566666662693 (float)
 3193 02a4 FAA40F3F 		.word	0x3f0fa4fa		# 0.561111092567 (float)
 3194 02a8 E4380E3F 		.word	0x3f0e38e4		# 0.555555582047 (float)
 3195 02ac CDCC0C3F 		.word	0x3f0ccccd		# 0.550000011921 (float)
 3196 02b0 B6600B3F 		.word	0x3f0b60b6		# 0.544444441795 (float)
 3197 02b4 9FF4093F 		.word	0x3f09f49f		# 0.53888887167 (float)
 3198 02b8 8988083F 		.word	0x3f088889		# 0.533333361149 (float)
 3199 02bc 721C073F 		.word	0x3f071c72		# 0.527777791023 (float)
 3200 02c0 5BB0053F 		.word	0x3f05b05b		# 0.522222220898 (float)
 3201 02c4 4444043F 		.word	0x3f044444		# 0.516666650772 (float)
 3202 02c8 2ED8023F 		.word	0x3f02d82e		# 0.511111140251 (float)
 3203 02cc 176C013F 		.word	0x3f016c17		# 0.505555570126 (float)
 3204 02d0 0000003F 		.word	0x3f000000		# 0.5 (float)
 3205 02d4 D227FD3E 		.word	0x3efd27d2		# 0.494444429874 (float)
 3206 02d8 A54FFA3E 		.word	0x3efa4fa5		# 0.488888889551 (float)
 3207 02dc 7777F73E 		.word	0x3ef77777		# 0.483333319426 (float)
 3208 02e0 4A9FF43E 		.word	0x3ef49f4a		# 0.477777779102 (float)
 3209 02e4 1CC7F13E 		.word	0x3ef1c71c		# 0.472222208977 (float)
 3210 02e8 EFEEEE3E 		.word	0x3eeeeeef		# 0.466666668653 (float)
 3211 02ec C116EC3E 		.word	0x3eec16c1		# 0.461111098528 (float)
 3212 02f0 943EE93E 		.word	0x3ee93e94		# 0.455555558205 (float)
GAS LISTING C:\DOCUME~1\Schmidt\LOCALS~1\Temp\ccKmaaaa.s 			page 66


 3213 02f4 6666E63E 		.word	0x3ee66666		# 0.449999988079 (float)
 3214 02f8 398EE33E 		.word	0x3ee38e39		# 0.444444447756 (float)
 3215 02fc 0BB6E03E 		.word	0x3ee0b60b		# 0.43888887763 (float)
 3216 0300 DEDDDD3E 		.word	0x3eddddde		# 0.433333337307 (float)
 3217 0304 B005DB3E 		.word	0x3edb05b0		# 0.427777767181 (float)
 3218 0308 832DD83E 		.word	0x3ed82d83		# 0.422222226858 (float)
 3219 030c 5555D53E 		.word	0x3ed55555		# 0.416666656733 (float)
 3220 0310 287DD23E 		.word	0x3ed27d28		# 0.411111116409 (float)
 3221 0314 FAA4CF3E 		.word	0x3ecfa4fa		# 0.405555546284 (float)
 3222 0318 CDCCCC3E 		.word	0x3ecccccd		# 0.40000000596 (float)
 3223 031c 9FF4C93E 		.word	0x3ec9f49f		# 0.394444435835 (float)
 3224 0320 721CC73E 		.word	0x3ec71c72		# 0.388888895512 (float)
 3225 0324 4444C43E 		.word	0x3ec44444		# 0.383333325386 (float)
 3226 0328 176CC13E 		.word	0x3ec16c17		# 0.377777785063 (float)
 3227 032c E993BE3E 		.word	0x3ebe93e9		# 0.372222214937 (float)
 3228 0330 BCBBBB3E 		.word	0x3ebbbbbc		# 0.366666674614 (float)
 3229 0334 8EE3B83E 		.word	0x3eb8e38e		# 0.361111104488 (float)
 3230 0338 610BB63E 		.word	0x3eb60b61		# 0.355555564165 (float)
 3231 033c 3333B33E 		.word	0x3eb33333		# 0.34999999404 (float)
 3232 0340 065BB03E 		.word	0x3eb05b06		# 0.344444453716 (float)
 3233 0344 D882AD3E 		.word	0x3ead82d8		# 0.338888883591 (float)
 3234 0348 ABAAAA3E 		.word	0x3eaaaaab		# 0.333333343267 (float)
 3235 034c 7DD2A73E 		.word	0x3ea7d27d		# 0.327777773142 (float)
 3236 0350 50FAA43E 		.word	0x3ea4fa50		# 0.322222232819 (float)
 3237 0354 2222A23E 		.word	0x3ea22222		# 0.316666662693 (float)
 3238 0358 F5499F3E 		.word	0x3e9f49f5		# 0.31111112237 (float)
 3239 035c C7719C3E 		.word	0x3e9c71c7		# 0.305555552244 (float)
 3240 0360 9A99993E 		.word	0x3e99999a		# 0.300000011921 (float)
 3241 0364 6CC1963E 		.word	0x3e96c16c		# 0.294444441795 (float)
 3242 0368 3FE9933E 		.word	0x3e93e93f		# 0.288888901472 (float)
 3243 036c 1111913E 		.word	0x3e911111		# 0.283333331347 (float)
 3244 0370 E4388E3E 		.word	0x3e8e38e4		# 0.277777791023 (float)
 3245 0374 B6608B3E 		.word	0x3e8b60b6		# 0.272222220898 (float)
 3246 0378 8988883E 		.word	0x3e888889		# 0.266666680574 (float)
 3247 037c 5BB0853E 		.word	0x3e85b05b		# 0.261111110449 (float)
 3248 0380 2ED8823E 		.word	0x3e82d82e		# 0.255555570126 (float)
 3249 0384 0000803E 		.word	0x3e800000		# 0.25 (float)
 3250 0388 A54F7A3E 		.word	0x3e7a4fa5		# 0.244444444776 (float)
 3251 038c 4A9F743E 		.word	0x3e749f4a		# 0.238888889551 (float)
 3252 0390 EFEE6E3E 		.word	0x3e6eeeef		# 0.233333334327 (float)
 3253 0394 943E693E 		.word	0x3e693e94		# 0.227777779102 (float)
 3254 0398 398E633E 		.word	0x3e638e39		# 0.222222223878 (float)
 3255 039c DEDD5D3E 		.word	0x3e5dddde		# 0.216666668653 (float)
 3256 03a0 832D583E 		.word	0x3e582d83		# 0.211111113429 (float)
 3257 03a4 287D523E 		.word	0x3e527d28		# 0.205555558205 (float)
 3258 03a8 CDCC4C3E 		.word	0x3e4ccccd		# 0.20000000298 (float)
 3259 03ac 721C473E 		.word	0x3e471c72		# 0.194444447756 (float)
 3260 03b0 176C413E 		.word	0x3e416c17		# 0.188888892531 (float)
 3261 03b4 BCBB3B3E 		.word	0x3e3bbbbc		# 0.183333337307 (float)
 3262 03b8 610B363E 		.word	0x3e360b61		# 0.177777782083 (float)
 3263 03bc 065B303E 		.word	0x3e305b06		# 0.172222226858 (float)
 3264 03c0 ABAA2A3E 		.word	0x3e2aaaab		# 0.166666671634 (float)
 3265 03c4 50FA243E 		.word	0x3e24fa50		# 0.161111116409 (float)
 3266 03c8 F5491F3E 		.word	0x3e1f49f5		# 0.155555561185 (float)
 3267 03cc 9A99193E 		.word	0x3e19999a		# 0.15000000596 (float)
 3268 03d0 3FE9133E 		.word	0x3e13e93f		# 0.144444450736 (float)
 3269 03d4 E4380E3E 		.word	0x3e0e38e4		# 0.138888895512 (float)
GAS LISTING C:\DOCUME~1\Schmidt\LOCALS~1\Temp\ccKmaaaa.s 			page 67


 3270 03d8 8988083E 		.word	0x3e088889		# 0.133333340287 (float)
 3271 03dc 2ED8023E 		.word	0x3e02d82e		# 0.127777785063 (float)
 3272 03e0 A54FFA3D 		.word	0x3dfa4fa5		# 0.122222222388 (float)
 3273 03e4 EFEEEE3D 		.word	0x3deeeeef		# 0.116666667163 (float)
 3274 03e8 398EE33D 		.word	0x3de38e39		# 0.111111111939 (float)
 3275 03ec 832DD83D 		.word	0x3dd82d83		# 0.105555556715 (float)
 3276 03f0 CDCCCC3D 		.word	0x3dcccccd		# 0.10000000149 (float)
 3277 03f4 176CC13D 		.word	0x3dc16c17		# 0.0944444462657 (float)
 3278 03f8 610BB63D 		.word	0x3db60b61		# 0.0888888910413 (float)
 3279 03fc ABAAAA3D 		.word	0x3daaaaab		# 0.0833333358169 (float)
 3280 0400 F5499F3D 		.word	0x3d9f49f5		# 0.0777777805924 (float)
 3281 0404 3FE9933D 		.word	0x3d93e93f		# 0.072222225368 (float)
 3282 0408 8988883D 		.word	0x3d888889		# 0.0666666701436 (float)
 3283 040c A54F7A3D 		.word	0x3d7a4fa5		# 0.0611111111939 (float)
 3284 0410 398E633D 		.word	0x3d638e39		# 0.0555555559695 (float)
 3285 0414 CDCC4C3D 		.word	0x3d4ccccd		# 0.0500000007451 (float)
 3286 0418 610B363D 		.word	0x3d360b61		# 0.0444444455206 (float)
 3287 041c F5491F3D 		.word	0x3d1f49f5		# 0.0388888902962 (float)
 3288 0420 8988083D 		.word	0x3d088889		# 0.0333333350718 (float)
 3289 0424 398EE33C 		.word	0x3ce38e39		# 0.0277777779847 (float)
 3290 0428 610BB63C 		.word	0x3cb60b61		# 0.0222222227603 (float)
 3291 042c 8988883C 		.word	0x3c888889		# 0.0166666675359 (float)
 3292 0430 610B363C 		.word	0x3c360b61		# 0.0111111113802 (float)
 3293 0434 610BB63B 		.word	0x3bb60b61		# 0.00555555569008 (float)
 3294 0438 00000000 		.word	0x00000000		# 0 (float)
 3295 043c A2B39F38 		.word	0x389fb3a2		# 7.61517003411e-005 (float)
 3296 0440 98B19F39 		.word	0x399fb198		# 0.000304591609165 (float)
 3297 0444 84A1333A 		.word	0x3a33a184		# 0.00068523758091 (float)
 3298 0448 90A49F3A 		.word	0x3a9fa490		# 0.00121797807515 (float)
 3299 044c 5D62F93A 		.word	0x3af9625d		# 0.0019026506925 (float)
 3300 0450 0082333B 		.word	0x3b338200		# 0.00273907184601 (float)
 3301 0454 B13F743B 		.word	0x3b743fb1		# 0.00372694083489 (float)
 3302 0458 C8729F3B 		.word	0x3b9f72c8		# 0.00486597791314 (float)
 3303 045c E4B6C93B 		.word	0x3bc9b6e4		# 0.0061558354646 (float)
 3304 0460 E3E8F83B 		.word	0x3bf8e8e3		# 0.00759612163529 (float)
 3305 0464 BB82163C 		.word	0x3c1682bb		# 0.0091864420101 (float)
 3306 0468 EA03333C 		.word	0x3c3303ea		# 0.010926226154 (float)
 3307 046c F2F5513C 		.word	0x3c51f5f2		# 0.0128149855882 (float)
 3308 0470 6856733C 		.word	0x3c735668		# 0.0148521438241 (float)
 3309 0474 5A918B3C 		.word	0x3c8b915a		# 0.0170370824635 (float)
 3310 0478 27AC9E3C 		.word	0x3c9eac27		# 0.0193691980094 (float)
 3311 047c DBF9B23C 		.word	0x3cb2f9db		# 0.0218476559967 (float)
 3312 0480 0279C83C 		.word	0x3cc87902		# 0.0244717635214 (float)
 3313 0484 EE27DF3C 		.word	0x3cdf27ee		# 0.0272407196462 (float)
 3314 0488 DA04F73C 		.word	0x3cf704da		# 0.0301536805928 (float)
 3315 048c 0C07083D 		.word	0x3d08070c		# 0.0332098454237 (float)
 3316 0490 AD20153D 		.word	0x3d1520ad		# 0.0364081151783 (float)
 3317 0494 60CE223D 		.word	0x3d22ce60		# 0.039747595787 (float)
 3318 0498 160F313D 		.word	0x3d310f16		# 0.0432272776961 (float)
 3319 049c B0E13F3D 		.word	0x3d3fe1b0		# 0.0468460917473 (float)
 3320 04a0 23454F3D 		.word	0x3d4f4523		# 0.050603043288 (float)
 3321 04a4 05385F3D 		.word	0x3d5f3805		# 0.0544967837632 (float)
 3322 04a8 33B96F3D 		.word	0x3d6fb933		# 0.0585262291133 (float)
 3323 04ac B163803D 		.word	0x3d8063b1		# 0.0626901462674 (float)
 3324 04b0 A030893D 		.word	0x3d8930a0		# 0.0669872760773 (float)
 3325 04b4 C642923D 		.word	0x3d9242c6		# 0.0714164227247 (float)
 3326 04b8 4E999B3D 		.word	0x3d9b994e		# 0.0759759992361 (float)
GAS LISTING C:\DOCUME~1\Schmidt\LOCALS~1\Temp\ccKmaaaa.s 			page 68


 3327 04bc 8E33A53D 		.word	0x3da5338e		# 0.0806647390127 (float)
 3328 04c0 C610AF3D 		.word	0x3daf10c6		# 0.0854812115431 (float)
 3329 04c4 4330B93D 		.word	0x3db93043		# 0.0904240831733 (float)
 3330 04c8 1791C33D 		.word	0x3dc39117		# 0.0954915806651 (float)
 3331 04cc 8532CE3D 		.word	0x3dce3285		# 0.100682295859 (float)
 3332 04d0 B813D93D 		.word	0x3dd913b8		# 0.105994641781 (float)
 3333 04d4 D833E43D 		.word	0x3de433d8		# 0.111427009106 (float)
 3334 04d8 1B92EF3D 		.word	0x3def921b		# 0.116977892816 (float)
 3335 04dc 742DFB3D 		.word	0x3dfb2d74		# 0.122645288706 (float)
 3336 04e0 8982033E 		.word	0x3e038289		# 0.128427639604 (float)
 3337 04e4 038C093E 		.word	0x3e098c03		# 0.134323164821 (float)
 3338 04e8 B1B20F3E 		.word	0x3e0fb2b1		# 0.140330091119 (float)
 3339 04ec 21F6153E 		.word	0x3e15f621		# 0.146446719766 (float)
 3340 04f0 C3551C3E 		.word	0x3e1c55c3		# 0.152670904994 (float)
 3341 04f4 20D1223E 		.word	0x3e22d120		# 0.159000873566 (float)
 3342 04f8 B767293E 		.word	0x3e2967b7		# 0.165434703231 (float)
 3343 04fc 0619303E 		.word	0x3e301906		# 0.171970456839 (float)
 3344 0500 93E4363E 		.word	0x3e36e493		# 0.178606316447 (float)
 3345 0504 BDC93D3E 		.word	0x3e3dc9bd		# 0.18533988297 (float)
 3346 0508 08C8443E 		.word	0x3e44c808		# 0.192169308662 (float)
 3347 050c E7DE4B3E 		.word	0x3e4bdee7		# 0.199092492461 (float)
 3348 0510 DA0D533E 		.word	0x3e530dda		# 0.206107527018 (float)
 3349 0514 39545A3E 		.word	0x3e5a5439		# 0.213211908937 (float)
 3350 0518 7DB1613E 		.word	0x3e61b17d		# 0.220403626561 (float)
 3351 051c 1525693E 		.word	0x3e692515		# 0.227680519223 (float)
 3352 0520 6CAE703E 		.word	0x3e70ae6c		# 0.23504036665 (float)
 3353 0524 F94C783E 		.word	0x3e784cf9		# 0.242481127381 (float)
 3354 0528 0400803E 		.word	0x3e800004		# 0.250000119209 (float)
 3355 052c 87E3833E 		.word	0x3e83e387		# 0.257595270872 (float)
 3356 0530 B7D0873E 		.word	0x3e87d0b7		# 0.265264242887 (float)
 3357 0534 47C78B3E 		.word	0x3e8bc747		# 0.273004740477 (float)
 3358 0538 EEC68F3E 		.word	0x3e8fc6ee		# 0.28081458807 (float)
 3359 053c 4ECF933E 		.word	0x3e93cf4e		# 0.288690984249 (float)
 3360 0540 1EE0973E 		.word	0x3e97e01e		# 0.296631753445 (float)
 3361 0544 0CF99B3E 		.word	0x3e9bf90c		# 0.304634451866 (float)
 3362 0548 C819A03E 		.word	0x3ea019c8		# 0.312696695328 (float)
 3363 054c 0542A43E 		.word	0x3ea44205		# 0.320816189051 (float)
 3364 0550 6271A83E 		.word	0x3ea87162		# 0.32899004221 (float)
 3365 0554 93A7AC3E 		.word	0x3eaca793		# 0.337215989828 (float)
 3366 0558 44E4B03E 		.word	0x3eb0e444		# 0.345491528511 (float)
 3367 055c 2027B53E 		.word	0x3eb52720		# 0.353814125061 (float)
 3368 0560 DA6FB93E 		.word	0x3eb96fda		# 0.362181484699 (float)
 3369 0564 0DBEBD3E 		.word	0x3ebdbe0d		# 0.370590597391 (float)
 3370 0568 6A11C23E 		.word	0x3ec2116a		# 0.379039108753 (float)
 3371 056c 9C69C63E 		.word	0x3ec6699c		# 0.387524485588 (float)
 3372 0570 4CC6CA3E 		.word	0x3ecac64c		# 0.396044135094 (float)
 3373 0574 2927CF3E 		.word	0x3ecf2729		# 0.404595643282 (float)
 3374 0578 CE8BD33E 		.word	0x3ed38bce		# 0.413176000118 (float)
 3375 057c EBF3D73E 		.word	0x3ed7f3eb		# 0.421782821417 (float)
 3376 0580 275FDC3E 		.word	0x3edc5f27		# 0.430413454771 (float)
 3377 0584 32CDE03E 		.word	0x3ee0cd32		# 0.439065515995 (float)
 3378 0588 A43DE53E 		.word	0x3ee53da4		# 0.447735905647 (float)
 3379 058c 2CB0E93E 		.word	0x3ee9b02c		# 0.45642220974 (float)
 3380 0590 7224EE3E 		.word	0x3eee2472		# 0.465121805668 (float)
 3381 0594 1C9AF23E 		.word	0x3ef29a1c		# 0.473832011223 (float)
 3382 0598 DA10F73E 		.word	0x3ef710da		# 0.482550442219 (float)
 3383 059c 4288FB3E 		.word	0x3efb8842		# 0.49127393961 (float)
GAS LISTING C:\DOCUME~1\Schmidt\LOCALS~1\Temp\ccKmaaaa.s 			page 69


 3384              		.rdata
 3385 0251 00000000 		.align	3
 3385      000000
 3386              	$LC14:
 3387 0258 444F4832 		.ascii	"DOH2\000"
 3387      00
 3388 025d 000000   		.align	3
 3389              	$LC15:
 3390 0260 42616420 		.ascii	"Bad sound volume: %d\n\000"
 3390      736F756E 
 3390      6420766F 
 3390      6C756D65 
 3390      3A202564 
 3391 0276 0000     		.align	3
 3392              	$LC16:
 3393 0278 42616420 		.ascii	"Bad angle! (<0)\n\000"
 3393      616E676C 
 3393      65212028 
 3393      3C30290A 
 3393      00
 3394              		.text
 3395 1ddc 00000000 		.p2align 3
 3396              		.globl	_set3dVolume__FUi
 3397              	$LFB21:
 3398              	$LM298:
 3399              		.stabn 68,0,819,$LM298
 3400              	.stabs "nsl_ps2_sound.cpp",132,0,0,$Ltext0
 3401              		.ent	_set3dVolume__FUi
 3402              	_set3dVolume__FUi:
 3403              		.frame	$fp,96,$31		# vars= 64, regs= 4/0, args= 0, extra= 0
 3404              		.mask	0xc0000000,-16
 3405              		.fmask	0x00000000,0
 3406 1de0 A0FFBD27 		subu	$sp,$sp,96
 3407              	$LCFI80:
 3408 1de4 5000BFFF 		sd	$31,80($sp)
 3409              	$LCFI81:
 3410 1de8 4000BEFF 		sd	$fp,64($sp)
 3411              	$LCFI82:
 3412 1dec 2DF0A003 		move	$fp,$sp
 3413              	$LCFI83:
 3414 1df0 0000C4AF 		sw	$4,0($fp)
 3415              	$LM299:
 3416              		.stabn 68,0,819,$LM299
 3417              	$LBB35:
 3418              	$LM300:
 3419              		.stabn 68,0,823,$LM300
 3420 1df4 0C00C0A7 		sh	$0,12($fp)
 3421              	$LM301:
 3422              		.stabn 68,0,824,$LM301
 3423 1df8 1000C0AF 		sw	$0,16($fp)
 3424              	$LM302:
 3425              		.stabn 68,0,827,$LM302
 3426 1dfc 803F013C 		li.s	$f0,1.00000000000000000000e0
 3426      00008144 
 3427 1e04 1C00C0E7 		s.s	$f0,28($fp)
 3428              	$LM303:
 3429              		.stabn 68,0,831,$LM303
GAS LISTING C:\DOCUME~1\Schmidt\LOCALS~1\Temp\ccKmaaaa.s 			page 70


 3430 1e08 0000C38F 		lw	$3,0($fp)
 3431 1e0c FF036230 		andi	$2,$3,0x3ff
 3432 1e10 58000324 		li	$3,88			# 0x58
 3433 1e14 18104300 		mult	$2,$2,$3
 3434 1e18 0000033C 		la	$3,nsl+22592
 3434      40586324 
 3435 1e20 21106200 		addu	$2,$3,$2
 3436 1e24 2000C2AF 		sw	$2,32($fp)
 3437              	$LM304:
 3438              		.stabn 68,0,834,$LM304
 3439 1e28 0000C48F 		lw	$4,0($fp)
 3440 1e2c 8409000C 		jal	_setSoundPosVolume__FUi
 3440      00000000 
 3441 1e34 0A004014 		bne	$2,$0,$L187
 3441      00000000 
 3442              	$LM305:
 3443              		.stabn 68,0,837,$LM305
 3444 1e3c 2000C28F 		lw	$2,32($fp)
 3445 1e40 440040AC 		sw	$0,68($2)
 3446              	$LM306:
 3447              		.stabn 68,0,838,$LM306
 3448 1e44 2000C28F 		lw	$2,32($fp)
 3449 1e48 200040A4 		sh	$0,32($2)
 3450              	$LM307:
 3451              		.stabn 68,0,839,$LM307
 3452 1e4c 2000C28F 		lw	$2,32($fp)
 3453 1e50 220040A4 		sh	$0,34($2)
 3454              	$LM308:
 3455              		.stabn 68,0,840,$LM308
 3456 1e54 2D100000 		move	$2,$0
 3457 1e58 E7010010 		b	$L186
 3457      00000000 
 3458              		.p2align 2
 3459              	$L187:
 3460              	$LM309:
 3461              		.stabn 68,0,842,$LM309
 3462 1e60 0000C48F 		lw	$4,0($fp)
 3463 1e64 200A000C 		jal	_setSoundAngle__FUi
 3463      00000000 
 3464              	$LM310:
 3465              		.stabn 68,0,844,$LM310
 3466 1e6c 2000C28F 		lw	$2,32($fp)
 3467 1e70 3800438C 		lw	$3,56($2)
 3468 1e74 FF036230 		andi	$2,$3,0x3ff
 3469 1e78 58000324 		li	$3,88			# 0x58
 3470 1e7c 18104300 		mult	$2,$2,$3
 3471 1e80 0000033C 		la	$3,nsl+128
 3471      80006324 
 3472 1e88 21106200 		addu	$2,$3,$2
 3473 1e8c 0000438C 		lw	$3,0($2)
 3474 1e90 0700642C 		sltu	$4,$3,7
 3475 1e94 2D008010 		beq	$4,$0,$L196
 3475      00000000 
 3476 1e9c 0000428C 		lw	$2,0($2)
 3477 1ea0 2D184000 		move	$3,$2
 3478 1ea4 80100300 		sll	$2,$3,2
 3479 1ea8 0000033C 		la	$3,$L197
GAS LISTING C:\DOCUME~1\Schmidt\LOCALS~1\Temp\ccKmaaaa.s 			page 71


 3479      90026324 
 3480 1eb0 21104300 		addu	$2,$2,$3
 3481 1eb4 0000438C 		lw	$3,0($2)
 3482 1eb8 08006000 		j	$3
 3482      00000000 
 3483              		.p2align 2
 3484              		.rdata
 3485 0289 00000000 		.align	4
 3485      000000
 3486              	$L197:
 3487 0290 C01E0000 		.word	$L189
 3488 0294 D41E0000 		.word	$L190
 3489 0298 E81E0000 		.word	$L191
 3490 029c FC1E0000 		.word	$L192
 3491 02a0 101F0000 		.word	$L193
 3492 02a4 241F0000 		.word	$L194
 3493 02a8 381F0000 		.word	$L195
 3494 02ac 00000000 		.text
 3495              		.p2align 2
 3496              	$L189:
 3497              	$LM311:
 3498              		.stabn 68,0,846,$LM311
 3499 1ec0 0100013C 		l.s	$f0,nsl+61572
 3499      84F020C4 
 3500 1ec8 1C00C0E7 		s.s	$f0,28($fp)
 3501 1ecc 25000010 		b	$L188
 3501      00000000 
 3502              		.p2align 2
 3503              	$L190:
 3504              	$LM312:
 3505              		.stabn 68,0,847,$LM312
 3506 1ed4 0100013C 		l.s	$f0,nsl+61576
 3506      88F020C4 
 3507 1edc 1C00C0E7 		s.s	$f0,28($fp)
 3508 1ee0 20000010 		b	$L188
 3508      00000000 
 3509              		.p2align 2
 3510              	$L191:
 3511              	$LM313:
 3512              		.stabn 68,0,848,$LM313
 3513 1ee8 0100013C 		l.s	$f0,nsl+61580
 3513      8CF020C4 
 3514 1ef0 1C00C0E7 		s.s	$f0,28($fp)
 3515 1ef4 1B000010 		b	$L188
 3515      00000000 
 3516              		.p2align 2
 3517              	$L192:
 3518              	$LM314:
 3519              		.stabn 68,0,849,$LM314
 3520 1efc 0100013C 		l.s	$f0,nsl+61584
 3520      90F020C4 
 3521 1f04 1C00C0E7 		s.s	$f0,28($fp)
 3522 1f08 16000010 		b	$L188
 3522      00000000 
 3523              		.p2align 2
 3524              	$L193:
 3525              	$LM315:
GAS LISTING C:\DOCUME~1\Schmidt\LOCALS~1\Temp\ccKmaaaa.s 			page 72


 3526              		.stabn 68,0,850,$LM315
 3527 1f10 0100013C 		l.s	$f0,nsl+61588
 3527      94F020C4 
 3528 1f18 1C00C0E7 		s.s	$f0,28($fp)
 3529 1f1c 11000010 		b	$L188
 3529      00000000 
 3530              		.p2align 2
 3531              	$L194:
 3532              	$LM316:
 3533              		.stabn 68,0,851,$LM316
 3534 1f24 0100013C 		l.s	$f0,nsl+61592
 3534      98F020C4 
 3535 1f2c 1C00C0E7 		s.s	$f0,28($fp)
 3536 1f30 0C000010 		b	$L188
 3536      00000000 
 3537              		.p2align 2
 3538              	$L195:
 3539              	$LM317:
 3540              		.stabn 68,0,852,$LM317
 3541 1f38 0100013C 		l.s	$f0,nsl+61596
 3541      9CF020C4 
 3542 1f40 1C00C0E7 		s.s	$f0,28($fp)
 3543 1f44 07000010 		b	$L188
 3543      00000000 
 3544              		.p2align 2
 3545              	$L196:
 3546              	$LM318:
 3547              		.stabn 68,0,853,$LM318
 3548 1f4c 0000043C 		la	$4,$LC14
 3548      58028424 
 3549 1f54 0000000C 		jal	nslFatal__FPCce
 3549      00000000 
 3550 1f5c 01000010 		b	$L188
 3550      00000000 
 3551              		.p2align 2
 3552              	$L188:
 3553              	$LM319:
 3554              		.stabn 68,0,856,$LM319
 3555 1f64 2000C28F 		lw	$2,32($fp)
 3556 1f68 3000438C 		lw	$3,48($2)
 3557 1f6c 07006018 		blez	$3,$L198
 3557      00000000 
 3558 1f74 0100013C 		l.s	$f0,nsl+61604
 3558      A4F020C4 
 3559 1f7c 64000046 		cvt.w.s $f1,$f0
 3560 1f80 00080244 		mfc1	$2,$f1
 3561 1f84 02000010 		b	$L199
 3561      00000000 
 3562              		.p2align 2
 3563              	$L198:
 3564 1f8c 01000224 		li	$2,1			# 0x1
 3565              	$L199:
 3566 1f90 2400C2AF 		sw	$2,36($fp)
 3567              	$LM320:
 3568              		.stabn 68,0,865,$LM320
 3569 1f94 0100013C 		l.s	$f0,nsl+61600
 3569      A0F020C4 
GAS LISTING C:\DOCUME~1\Schmidt\LOCALS~1\Temp\ccKmaaaa.s 			page 73


 3570 1f9c 7F46013C 		li.s	$f1,1.63830000000000000000e4
 3570      00FC2134 
 3570      00088144 
 3571 1fa8 02000146 		mul.s	$f0,$f0,$f1
 3572 1fac 2400C1C7 		l.s	$f1,36($fp)
 3573 1fb0 60088046 		cvt.s.w	$f1,$f1
 3574 1fb4 02000146 		mul.s	$f0,$f0,$f1
 3575 1fb8 2000C28F 		lw	$2,32($fp)
 3576 1fbc 440041C4 		l.s	$f1,68($2)
 3577 1fc0 02000146 		mul.s	$f0,$f0,$f1
 3578 1fc4 2000C28F 		lw	$2,32($fp)
 3579 1fc8 400041C4 		l.s	$f1,64($2)
 3580 1fcc 02000146 		mul.s	$f0,$f0,$f1
 3581 1fd0 1C00C1C7 		l.s	$f1,28($fp)
 3582 1fd4 02000146 		mul.s	$f0,$f0,$f1
 3583 1fd8 64000046 		cvt.w.s $f1,$f0
 3584 1fdc 00080244 		mfc1	$2,$f1
 3585 1fe0 0C00C2A7 		sh	$2,12($fp)
 3586              	$LM321:
 3587              		.stabn 68,0,866,$LM321
 3588              	$LBB36:
 3589 1fe4 0100023C 		lw	$2,nsl+61532
 3589      5CF0428C 
 3590 1fec 01000324 		li	$3,1			# 0x1
 3591 1ff0 75014310 		beq	$2,$3,$L200
 3591      00000000 
 3592              	$LM322:
 3593              		.stabn 68,0,867,$LM322
 3594              	$LBB37:
 3595              	$LM323:
 3596              		.stabn 68,0,868,$LM323
 3597 1ff8 2000C28F 		lw	$2,32($fp)
 3598 1ffc 480040C4 		l.s	$f0,72($2)
 3599 2000 3443013C 		li.s	$f1,1.80000000000000000000e2
 3599      00088144 
 3600 2008 02000146 		mul.s	$f0,$f0,$f1
 3601 200c 06030046 		mov.s	$f12,$f0
 3602 2010 0000000C 		jal	fptodp
 3602      00000000 
 3603 2018 2D204000 		move	$4,$2
 3604 201c 0000013C 		li.d	$5,3.14159265358979311600e0
 3604      B00225DC 
 3605 2024 0000000C 		jal	dpdiv
 3605      00000000 
 3606 202c 2D204000 		move	$4,$2
 3607 2030 0000000C 		jal	dptofp
 3607      00000000 
 3608 2038 1000C0E7 		s.s	$f0,16($fp)
 3609              	$LM324:
 3610              		.stabn 68,0,870,$LM324
 3611              	$LBB38:
 3612 203c 1000C0C7 		l.s	$f0,16($fp)
 3613 2040 64000046 		cvt.w.s $f1,$f0
 3614 2044 00080244 		mfc1	$2,$f1
 3615 2048 00008244 		mtc1	$2,$f0
 3616 204c 20008046 		cvt.s.w	$f0,$f0
 3617 2050 1000C1C7 		l.s	$f1,16($fp)
GAS LISTING C:\DOCUME~1\Schmidt\LOCALS~1\Temp\ccKmaaaa.s 			page 74


 3618 2054 32080046 		c.eq.s	$f1,$f0
 3619 2058 1A000045 		bc1f	$L201
 3619      00000000 
 3620              	$LM325:
 3621              		.stabn 68,0,871,$LM325
 3622 2060 1000C0C7 		l.s	$f0,16($fp)
 3623 2064 64000046 		cvt.w.s $f1,$f0
 3624 2068 00080244 		mfc1	$2,$f1
 3625 206c 2D184000 		move	$3,$2
 3626 2070 80100300 		sll	$2,$3,2
 3627 2074 0000033C 		la	$3,NSL_RIGHT_PAN_RATIO_TABLE
 3627      00006324 
 3628 207c 21106200 		addu	$2,$3,$2
 3629 2080 803F013C 		li.s	$f0,1.00000000000000000000e0
 3629      00008144 
 3630 2088 000041C4 		l.s	$f1,0($2)
 3631 208c 01000146 		sub.s	$f0,$f0,$f1
 3632 2090 1400C0E7 		s.s	$f0,20($fp)
 3633              	$LM326:
 3634              		.stabn 68,0,872,$LM326
 3635 2094 1000C0C7 		l.s	$f0,16($fp)
 3636 2098 64000046 		cvt.w.s $f1,$f0
 3637 209c 00080244 		mfc1	$2,$f1
 3638 20a0 2D184000 		move	$3,$2
 3639 20a4 80100300 		sll	$2,$3,2
 3640 20a8 0000033C 		la	$3,NSL_RIGHT_PAN_RATIO_TABLE
 3640      00006324 
 3641 20b0 21106200 		addu	$2,$3,$2
 3642 20b4 000040C4 		l.s	$f0,0($2)
 3643 20b8 1800C0E7 		s.s	$f0,24($fp)
 3644 20bc 49000010 		b	$L202
 3644      00000000 
 3645              		.p2align 2
 3646              	$L201:
 3647              	$LM327:
 3648              		.stabn 68,0,873,$LM327
 3649              	$LBB39:
 3650              	$LM328:
 3651              		.stabn 68,0,874,$LM328
 3652 20c4 1000C0C7 		l.s	$f0,16($fp)
 3653 20c8 64000046 		cvt.w.s $f1,$f0
 3654 20cc 2800C1E7 		s.s	$f1,40($fp)
 3655              	$LM329:
 3656              		.stabn 68,0,876,$LM329
 3657 20d0 2800C0C7 		l.s	$f0,40($fp)
 3658 20d4 20008046 		cvt.s.w	$f0,$f0
 3659 20d8 1000C1C7 		l.s	$f1,16($fp)
 3660 20dc 01080046 		sub.s	$f0,$f1,$f0
 3661 20e0 3000C0E7 		s.s	$f0,48($fp)
 3662              	$LM330:
 3663              		.stabn 68,0,877,$LM330
 3664 20e4 2800C28F 		lw	$2,40($fp)
 3665 20e8 01004324 		addu	$3,$2,1
 3666 20ec 2C00C3AF 		sw	$3,44($fp)
 3667              	$LM331:
 3668              		.stabn 68,0,882,$LM331
 3669 20f0 2C00C28F 		lw	$2,44($fp)
GAS LISTING C:\DOCUME~1\Schmidt\LOCALS~1\Temp\ccKmaaaa.s 			page 75


 3670 20f4 2D184000 		move	$3,$2
 3671 20f8 80100300 		sll	$2,$3,2
 3672 20fc 0000033C 		la	$3,NSL_RIGHT_PAN_RATIO_TABLE
 3672      00006324 
 3673 2104 21106200 		addu	$2,$3,$2
 3674 2108 803F013C 		li.s	$f0,1.00000000000000000000e0
 3674      00008144 
 3675 2110 000041C4 		l.s	$f1,0($2)
 3676 2114 01000146 		sub.s	$f0,$f0,$f1
 3677 2118 2800C28F 		lw	$2,40($fp)
 3678 211c 2D184000 		move	$3,$2
 3679 2120 80100300 		sll	$2,$3,2
 3680 2124 0000033C 		la	$3,NSL_RIGHT_PAN_RATIO_TABLE
 3680      00006324 
 3681 212c 21106200 		addu	$2,$3,$2
 3682 2130 803F013C 		li.s	$f1,1.00000000000000000000e0
 3682      00088144 
 3683 2138 000042C4 		l.s	$f2,0($2)
 3684 213c 41080246 		sub.s	$f1,$f1,$f2
 3685 2140 01000146 		sub.s	$f0,$f0,$f1
 3686 2144 3000C1C7 		l.s	$f1,48($fp)
 3687 2148 02000146 		mul.s	$f0,$f0,$f1
 3688 214c 2800C28F 		lw	$2,40($fp)
 3689 2150 2D184000 		move	$3,$2
 3690 2154 80100300 		sll	$2,$3,2
 3691 2158 0000033C 		la	$3,NSL_RIGHT_PAN_RATIO_TABLE
 3691      00006324 
 3692 2160 21106200 		addu	$2,$3,$2
 3693 2164 803F013C 		li.s	$f1,1.00000000000000000000e0
 3693      00088144 
 3694 216c 000042C4 		l.s	$f2,0($2)
 3695 2170 41080246 		sub.s	$f1,$f1,$f2
 3696 2174 00000146 		add.s	$f0,$f0,$f1
 3697 2178 1400C0E7 		s.s	$f0,20($fp)
 3698              	$LM332:
 3699              		.stabn 68,0,885,$LM332
 3700 217c 2C00C28F 		lw	$2,44($fp)
 3701 2180 2D184000 		move	$3,$2
 3702 2184 80100300 		sll	$2,$3,2
 3703 2188 0000033C 		la	$3,NSL_RIGHT_PAN_RATIO_TABLE
 3703      00006324 
 3704 2190 21106200 		addu	$2,$3,$2
 3705 2194 2800C38F 		lw	$3,40($fp)
 3706 2198 2D206000 		move	$4,$3
 3707 219c 80180400 		sll	$3,$4,2
 3708 21a0 0000043C 		la	$4,NSL_RIGHT_PAN_RATIO_TABLE
 3708      00008424 
 3709 21a8 21188300 		addu	$3,$4,$3
 3710 21ac 000040C4 		l.s	$f0,0($2)
 3711 21b0 000061C4 		l.s	$f1,0($3)
 3712 21b4 01000146 		sub.s	$f0,$f0,$f1
 3713 21b8 3000C1C7 		l.s	$f1,48($fp)
 3714 21bc 02000146 		mul.s	$f0,$f0,$f1
 3715 21c0 2800C28F 		lw	$2,40($fp)
 3716 21c4 2D184000 		move	$3,$2
 3717 21c8 80100300 		sll	$2,$3,2
 3718 21cc 0000033C 		la	$3,NSL_RIGHT_PAN_RATIO_TABLE
GAS LISTING C:\DOCUME~1\Schmidt\LOCALS~1\Temp\ccKmaaaa.s 			page 76


 3718      00006324 
 3719 21d4 21106200 		addu	$2,$3,$2
 3720 21d8 000041C4 		l.s	$f1,0($2)
 3721 21dc 00000146 		add.s	$f0,$f0,$f1
 3722 21e0 1800C0E7 		s.s	$f0,24($fp)
 3723              	$LBE39:
 3724              	$L202:
 3725              	$LBE38:
 3726              	$LM333:
 3727              		.stabn 68,0,891,$LM333
 3728 21e4 1000C0C7 		l.s	$f0,16($fp)
 3729 21e8 A042013C 		li.s	$f1,8.00000000000000000000e1
 3729      00088144 
 3730 21f0 34080046 		c.lt.s	$f1,$f0
 3731 21f4 21000045 		bc1f	$L203
 3731      00000000 
 3732 21fc 1000C0C7 		l.s	$f0,16($fp)
 3733 2200 C842013C 		li.s	$f1,1.00000000000000000000e2
 3733      00088144 
 3734 2208 34000146 		c.lt.s	$f0,$f1
 3735 220c 1B000045 		bc1f	$L203
 3735      00000000 
 3736              	$LM334:
 3737              		.stabn 68,0,893,$LM334
 3738 2214 0C00C297 		lhu	$2,12($fp)
 3739 2218 00008244 		mtc1	$2,$f0
 3740 221c 20008046 		cvt.s.w	$f0,$f0
 3741 2220 1000C1C7 		l.s	$f1,16($fp)
 3742 2224 A042013C 		li.s	$f2,8.00000000000000000000e1
 3742      00108144 
 3743 222c 41080246 		sub.s	$f1,$f1,$f2
 3744 2230 A041013C 		li.s	$f2,2.00000000000000000000e1
 3744      00108144 
 3745 2238 43080246 		div.s	$f1,$f1,$f2
 3746 223c 80BF013C 		li.s	$f2,-1.00000000000000000000e0
 3746      00108144 
 3747 2244 42080246 		mul.s	$f1,$f1,$f2
 3748 2248 CC3D013C 		li.s	$f2,1.00000001490116119385e-1
 3748      CDCC2134 
 3748      00108144 
 3749 2254 42080246 		mul.s	$f1,$f1,$f2
 3750 2258 803F013C 		li.s	$f2,1.00000000000000000000e0
 3750      00108144 
 3751 2260 40080246 		add.s	$f1,$f1,$f2
 3752 2264 02000146 		mul.s	$f0,$f0,$f1
 3753 2268 64000046 		cvt.w.s $f1,$f0
 3754 226c 00080244 		mfc1	$2,$f1
 3755 2270 0C00C2A7 		sh	$2,12($fp)
 3756 2274 3B000010 		b	$L204
 3756      00000000 
 3757              		.p2align 2
 3758              	$L203:
 3759              	$LM335:
 3760              		.stabn 68,0,895,$LM335
 3761 227c 1000C0C7 		l.s	$f0,16($fp)
 3762 2280 C842013C 		li.s	$f1,1.00000000000000000000e2
 3762      00088144 
GAS LISTING C:\DOCUME~1\Schmidt\LOCALS~1\Temp\ccKmaaaa.s 			page 77


 3763 2288 36080046 		c.le.s	$f1,$f0
 3764 228c 13000045 		bc1f	$L205
 3764      00000000 
 3765 2294 1000C0C7 		l.s	$f0,16($fp)
 3766 2298 8243013C 		li.s	$f1,2.60000000000000000000e2
 3766      00088144 
 3767 22a0 36000146 		c.le.s	$f0,$f1
 3768 22a4 0D000045 		bc1f	$L205
 3768      00000000 
 3769              	$LM336:
 3770              		.stabn 68,0,897,$LM336
 3771 22ac 0C00C297 		lhu	$2,12($fp)
 3772 22b0 00008244 		mtc1	$2,$f0
 3773 22b4 20008046 		cvt.s.w	$f0,$f0
 3774 22b8 663F013C 		li.s	$f1,8.99999976158142089844e-1
 3774      66662134 
 3774      00088144 
 3775 22c4 02000146 		mul.s	$f0,$f0,$f1
 3776 22c8 64000046 		cvt.w.s $f1,$f0
 3777 22cc 00080244 		mfc1	$2,$f1
 3778 22d0 0C00C2A7 		sh	$2,12($fp)
 3779 22d4 23000010 		b	$L204
 3779      00000000 
 3780              		.p2align 2
 3781              	$L205:
 3782              	$LM337:
 3783              		.stabn 68,0,899,$LM337
 3784 22dc 1000C0C7 		l.s	$f0,16($fp)
 3785 22e0 8243013C 		li.s	$f1,2.60000000000000000000e2
 3785      00088144 
 3786 22e8 34080046 		c.lt.s	$f1,$f0
 3787 22ec 1D000045 		bc1f	$L204
 3787      00000000 
 3788 22f4 1000C0C7 		l.s	$f0,16($fp)
 3789 22f8 8C43013C 		li.s	$f1,2.80000000000000000000e2
 3789      00088144 
 3790 2300 34000146 		c.lt.s	$f0,$f1
 3791 2304 17000045 		bc1f	$L204
 3791      00000000 
 3792              	$LM338:
 3793              		.stabn 68,0,901,$LM338
 3794 230c 0C00C297 		lhu	$2,12($fp)
 3795 2310 00008244 		mtc1	$2,$f0
 3796 2314 20008046 		cvt.s.w	$f0,$f0
 3797 2318 1000C1C7 		l.s	$f1,16($fp)
 3798 231c 8243013C 		li.s	$f2,2.60000000000000000000e2
 3798      00108144 
 3799 2324 41080246 		sub.s	$f1,$f1,$f2
 3800 2328 A041013C 		li.s	$f2,2.00000000000000000000e1
 3800      00108144 
 3801 2330 43080246 		div.s	$f1,$f1,$f2
 3802 2334 CC3D013C 		li.s	$f2,1.00000001490116119385e-1
 3802      CDCC2134 
 3802      00108144 
 3803 2340 42080246 		mul.s	$f1,$f1,$f2
 3804 2344 663F013C 		li.s	$f2,8.99999976158142089844e-1
 3804      66662134 
GAS LISTING C:\DOCUME~1\Schmidt\LOCALS~1\Temp\ccKmaaaa.s 			page 78


 3804      00108144 
 3805 2350 40080246 		add.s	$f1,$f1,$f2
 3806 2354 02000146 		mul.s	$f0,$f0,$f1
 3807 2358 64000046 		cvt.w.s $f1,$f0
 3808 235c 00080244 		mfc1	$2,$f1
 3809 2360 0C00C2A7 		sh	$2,12($fp)
 3810              	$L207:
 3811              	$L206:
 3812              	$L204:
 3813              	$LM339:
 3814              		.stabn 68,0,905,$LM339
 3815 2364 0C00C297 		lhu	$2,12($fp)
 3816 2368 0040432C 		sltu	$3,$2,16384
 3817 236c 07006014 		bne	$3,$0,$L208
 3817      00000000 
 3818              	$LM340:
 3819              		.stabn 68,0,906,$LM340
 3820 2374 0C00C297 		lhu	$2,12($fp)
 3821 2378 0000043C 		la	$4,$LC15
 3821      60028424 
 3822 2380 2D284000 		move	$5,$2
 3823 2384 0000000C 		jal	nslFatal__FPCce
 3823      00000000 
 3824              	$L208:
 3825              	$LM341:
 3826              		.stabn 68,0,907,$LM341
 3827 238c 1000C0C7 		l.s	$f0,16($fp)
 3828 2390 00088044 		mtc1	$0,$f1
 3829 2394 36080046 		c.le.s	$f1,$f0
 3830 2398 05000145 		bc1t	$L209
 3830      00000000 
 3831              	$LM342:
 3832              		.stabn 68,0,908,$LM342
 3833 23a0 0000043C 		la	$4,$LC16
 3833      78028424 
 3834 23a8 0000000C 		jal	nslFatal__FPCce
 3834      00000000 
 3835              	$L209:
 3836              	$LM343:
 3837              		.stabn 68,0,910,$LM343
 3838 23b0 0C00C297 		lhu	$2,12($fp)
 3839 23b4 00008244 		mtc1	$2,$f0
 3840 23b8 20008046 		cvt.s.w	$f0,$f0
 3841 23bc 1400C1C7 		l.s	$f1,20($fp)
 3842 23c0 02000146 		mul.s	$f0,$f0,$f1
 3843 23c4 64000046 		cvt.w.s $f1,$f0
 3844 23c8 00080244 		mfc1	$2,$f1
 3845 23cc 0800C2A7 		sh	$2,8($fp)
 3846              	$LM344:
 3847              		.stabn 68,0,911,$LM344
 3848 23d0 0C00C297 		lhu	$2,12($fp)
 3849 23d4 00008244 		mtc1	$2,$f0
 3850 23d8 20008046 		cvt.s.w	$f0,$f0
 3851 23dc 1800C1C7 		l.s	$f1,24($fp)
 3852 23e0 02000146 		mul.s	$f0,$f0,$f1
 3853 23e4 64000046 		cvt.w.s $f1,$f0
 3854 23e8 00080244 		mfc1	$2,$f1
GAS LISTING C:\DOCUME~1\Schmidt\LOCALS~1\Temp\ccKmaaaa.s 			page 79


 3855 23ec 0A00C2A7 		sh	$2,10($fp)
 3856              	$LM345:
 3857              		.stabn 68,0,913,$LM345
 3858 23f0 0100023C 		lw	$2,nsl+61532
 3858      5CF0428C 
 3859 23f8 03000324 		li	$3,3			# 0x3
 3860 23fc 08004310 		beq	$2,$3,$L211
 3860      00000000 
 3861 2404 0100023C 		lw	$2,nsl+61532
 3861      5CF0428C 
 3862 240c 04000324 		li	$3,4			# 0x4
 3863 2410 03004310 		beq	$2,$3,$L211
 3863      00000000 
 3864 2418 5D000010 		b	$L210
 3864      00000000 
 3865              		.p2align 2
 3866              	$L211:
 3867              	$LM346:
 3868              		.stabn 68,0,915,$LM346
 3869              		.p2align 3
 3870              	$L212:
 3871 2420 1000C0C7 		l.s	$f0,16($fp)
 3872 2424 B443013C 		li.s	$f1,3.60000000000000000000e2
 3872      00088144 
 3873 242c 34080046 		c.lt.s	$f1,$f0
 3874 2430 03000145 		bc1t	$L214
 3874      00000000 
 3875 2438 08000010 		b	$L213
 3875      00000000 
 3876              		.p2align 2
 3877              	$L214:
 3878              	$LM347:
 3879              		.stabn 68,0,916,$LM347
 3880 2440 1000C0C7 		l.s	$f0,16($fp)
 3881 2444 B443013C 		li.s	$f1,3.60000000000000000000e2
 3881      00088144 
 3882 244c 01000146 		sub.s	$f0,$f0,$f1
 3883 2450 1000C0E7 		s.s	$f0,16($fp)
 3884 2454 F2FF0010 		b	$L212
 3884      00000000 
 3885              		.p2align 2
 3886              	$L213:
 3887              	$LM348:
 3888              		.stabn 68,0,919,$LM348
 3889 245c 1000C0C7 		l.s	$f0,16($fp)
 3890 2460 B442013C 		li.s	$f1,9.00000000000000000000e1
 3890      00088144 
 3891 2468 34080046 		c.lt.s	$f1,$f0
 3892 246c 0B000045 		bc1f	$L215
 3892      00000000 
 3893 2474 1000C0C7 		l.s	$f0,16($fp)
 3894 2478 8743013C 		li.s	$f1,2.70000000000000000000e2
 3894      00088144 
 3895 2480 34000146 		c.lt.s	$f0,$f1
 3896 2484 05000045 		bc1f	$L215
 3896      00000000 
 3897              	$LM349:
GAS LISTING C:\DOCUME~1\Schmidt\LOCALS~1\Temp\ccKmaaaa.s 			page 80


 3898              		.stabn 68,0,920,$LM349
 3899 248c 01000224 		li	$2,1			# 0x1
 3900 2490 0400C2AF 		sw	$2,4($fp)
 3901 2494 02000010 		b	$L216
 3901      00000000 
 3902              		.p2align 2
 3903              	$L215:
 3904              	$LM350:
 3905              		.stabn 68,0,922,$LM350
 3906 249c 0400C0AF 		sw	$0,4($fp)
 3907              	$L216:
 3908              	$LM351:
 3909              		.stabn 68,0,924,$LM351
 3910 24a0 0400C28F 		lw	$2,4($fp)
 3911 24a4 3A004010 		beq	$2,$0,$L210
 3911      00000000 
 3912              	$LM352:
 3913              		.stabn 68,0,927,$LM352
 3914 24ac 2000C28F 		lw	$2,32($fp)
 3915 24b0 24004384 		lh	$3,36($2)
 3916 24b4 07006104 		bgez	$3,$L220
 3916      00000000 
 3917 24bc 2000C28F 		lw	$2,32($fp)
 3918 24c0 26004384 		lh	$3,38($2)
 3919 24c4 0D006004 		bltz	$3,$L219
 3919      00000000 
 3920 24cc 01000010 		b	$L220
 3920      00000000 
 3921              		.p2align 2
 3922              	$L220:
 3923 24d4 2000C28F 		lw	$2,32($fp)
 3924 24d8 24004384 		lh	$3,36($2)
 3925 24dc 1C006018 		blez	$3,$L218
 3925      00000000 
 3926 24e4 2000C28F 		lw	$2,32($fp)
 3927 24e8 26004384 		lh	$3,38($2)
 3928 24ec 0300601C 		bgtz	$3,$L219
 3928      00000000 
 3929 24f4 16000010 		b	$L218
 3929      00000000 
 3930              		.p2align 2
 3931              	$L219:
 3932              	$LM353:
 3933              		.stabn 68,0,930,$LM353
 3934 24fc 0800C387 		lh	$3,8($fp)
 3935              		.set	noreorder
 3936 2500 02006104 		bgez	$3,1f
 3937 2504 2D106000 		move	$2,$3
 3938 2508 23100200 		subu	$2,$0,$2
 3939              	1:
 3940              		.set	reorder
 3941 250c 0A00C387 		lh	$3,10($fp)
 3942              		.set	noreorder
 3943 2510 02006104 		bgez	$3,1f
 3944 2514 2D206000 		move	$4,$3
 3945 2518 23200400 		subu	$4,$0,$4
 3946              	1:
GAS LISTING C:\DOCUME~1\Schmidt\LOCALS~1\Temp\ccKmaaaa.s 			page 81


 3947              		.set	reorder
 3948 251c 2A104400 		slt	$2,$2,$4
 3949 2520 06004010 		beq	$2,$0,$L221
 3949      00000000 
 3950              	$LM354:
 3951              		.stabn 68,0,932,$LM354
 3952 2528 0800C297 		lhu	$2,8($fp)
 3953 252c 23180200 		subu	$3,$0,$2
 3954 2530 0800C3A7 		sh	$3,8($fp)
 3955 2534 04000010 		b	$L222
 3955      00000000 
 3956              		.p2align 2
 3957              	$L221:
 3958              	$LM355:
 3959              		.stabn 68,0,936,$LM355
 3960 253c 0A00C297 		lhu	$2,10($fp)
 3961 2540 23180200 		subu	$3,$0,$2
 3962 2544 0A00C3A7 		sh	$3,10($fp)
 3963              	$L222:
 3964 2548 11000010 		b	$L210
 3964      00000000 
 3965              		.p2align 2
 3966              	$L218:
 3967              	$LM356:
 3968              		.stabn 68,0,942,$LM356
 3969 2550 2000C28F 		lw	$2,32($fp)
 3970 2554 26004384 		lh	$3,38($2)
 3971 2558 06006104 		bgez	$3,$L224
 3971      00000000 
 3972              	$LM357:
 3973              		.stabn 68,0,943,$LM357
 3974 2560 0A00C297 		lhu	$2,10($fp)
 3975 2564 23180200 		subu	$3,$0,$2
 3976 2568 0A00C3A7 		sh	$3,10($fp)
 3977 256c 08000010 		b	$L210
 3977      00000000 
 3978              		.p2align 2
 3979              	$L224:
 3980              	$LM358:
 3981              		.stabn 68,0,944,$LM358
 3982 2574 2000C28F 		lw	$2,32($fp)
 3983 2578 24004384 		lh	$3,36($2)
 3984 257c 04006104 		bgez	$3,$L210
 3984      00000000 
 3985              	$LM359:
 3986              		.stabn 68,0,945,$LM359
 3987 2584 0800C297 		lhu	$2,8($fp)
 3988 2588 23180200 		subu	$3,$0,$2
 3989 258c 0800C3A7 		sh	$3,8($fp)
 3990              	$L226:
 3991              	$L225:
 3992              	$L223:
 3993              	$L217:
 3994              	$L210:
 3995              	$LM360:
 3996              		.stabn 68,0,951,$LM360
 3997 2590 2000C28F 		lw	$2,32($fp)
GAS LISTING C:\DOCUME~1\Schmidt\LOCALS~1\Temp\ccKmaaaa.s 			page 82


 3998 2594 0A00C397 		lhu	$3,10($fp)
 3999 2598 260043A4 		sh	$3,38($2)
 4000              	$LM361:
 4001              		.stabn 68,0,952,$LM361
 4002 259c 2000C28F 		lw	$2,32($fp)
 4003 25a0 0800C397 		lhu	$3,8($fp)
 4004 25a4 240043A4 		sh	$3,36($2)
 4005              	$LM362:
 4006              		.stabn 68,0,956,$LM362
 4007 25a8 2000C28F 		lw	$2,32($fp)
 4008 25ac 0800C397 		lhu	$3,8($fp)
 4009 25b0 200043A4 		sh	$3,32($2)
 4010              	$LM363:
 4011              		.stabn 68,0,957,$LM363
 4012 25b4 2000C28F 		lw	$2,32($fp)
 4013 25b8 0A00C397 		lhu	$3,10($fp)
 4014 25bc 220043A4 		sh	$3,34($2)
 4015              	$LBE37:
 4016 25c0 06000010 		b	$L227
 4016      00000000 
 4017              		.p2align 2
 4018              	$L200:
 4019              	$LM364:
 4020              		.stabn 68,0,961,$LM364
 4021 25c8 2000C28F 		lw	$2,32($fp)
 4022 25cc 2000C38F 		lw	$3,32($fp)
 4023 25d0 0C00C497 		lhu	$4,12($fp)
 4024 25d4 220064A4 		sh	$4,34($3)
 4025 25d8 200044A4 		sh	$4,32($2)
 4026              	$L227:
 4027              	$LBE36:
 4028              	$LM365:
 4029              		.stabn 68,0,965,$LM365
 4030 25dc 01000224 		li	$2,1			# 0x1
 4031 25e0 05000010 		b	$L186
 4031      00000000 
 4032              	$LBE35:
 4033 25e8 03000010 		b	$L228
 4033      00000000 
 4034 25f0 01000010 		b	$L186
 4034      00000000 
 4035              		.p2align 2
 4036              	$L228:
 4037              	$LM366:
 4038              		.stabn 68,0,966,$LM366
 4039              	$L186:
 4040 25f8 2DE8C003 		move	$sp,$fp
 4041 25fc 5000BFDF 		ld	$31,80($sp)
 4042 2600 4000BEDF 		ld	$fp,64($sp)
 4043 2604 6000BD27 		addu	$sp,$sp,96
 4044 2608 0800E003 		j	$31
 4044      00000000 
 4045              		.end	_set3dVolume__FUi
 4046              	$LFE21:
 4047              	.stabs "_set3dVolume__FUi:F21",36,0,819,_set3dVolume__FUi
 4048              	.stabs "whichSound:p42",160,0,819,-96
 4049              	.stabs "back:1",128,0,821,-92
GAS LISTING C:\DOCUME~1\Schmidt\LOCALS~1\Temp\ccKmaaaa.s 			page 83


 4050              	.stabs "new_left:8",128,0,822,-88
 4051              	.stabs "new_right:8",128,0,822,-86
 4052              	.stabs "vol:9",128,0,823,-84
 4053              	.stabs "angle:14",128,0,824,-80
 4054              	.stabs "left_table:14",128,0,826,-76
 4055              	.stabs "right_table:14",128,0,826,-72
 4056              	.stabs "volumeModifier:14",128,0,827,-68
 4057              	.stabs "snd:233",128,0,830,-64
 4058              	.stabs "damp:1",128,0,856,-60
 4059              	.stabn 192,0,0,$LBB35
 4060              	.stabn 192,0,0,$LBB36
 4061              	.stabn 192,0,0,$LBB37
 4062              	.stabn 192,0,0,$LBB38
 4063              	.stabs "iangle:1",128,0,874,-56
 4064              	.stabs "other_angle:1",128,0,874,-52
 4065              	.stabs "delta:14",128,0,875,-48
 4066              	.stabn 192,0,0,$LBB39
 4067              	.stabn 224,0,0,$LBE39
 4068              	.stabn 224,0,0,$LBE38
 4069              	.stabn 224,0,0,$LBE37
 4070              	.stabn 224,0,0,$LBE36
 4071              	.stabn 224,0,0,$LBE35
 4072              	$Lscope20:
 4073              	.stabs "",36,0,0,$Lscope20-_set3dVolume__FUi
 4074              		.rdata
 4075              		.align	3
 4076              	$LC17:
 4077 02b8 54686573 		.ascii	"These should never go negative\000"
 4077      65207368 
 4077      6F756C64 
 4077      206E6576 
 4077      65722067 
 4078 02d7 00       		.text
 4079              		.p2align 3
 4080              		.globl	_setSoundPosVolume__FUi
 4081              	$LFB22:
 4082              	$LM367:
 4083              		.stabn 68,0,969,$LM367
 4084              	.stabs "nsl_ps2_sound.cpp",132,0,0,$Ltext0
 4085              		.ent	_setSoundPosVolume__FUi
 4086              	_setSoundPosVolume__FUi:
 4087              		.frame	$fp,96,$31		# vars= 64, regs= 4/0, args= 0, extra= 0
 4088              		.mask	0xc0000000,-16
 4089              		.fmask	0x00000000,0
 4090 2610 A0FFBD27 		subu	$sp,$sp,96
 4091              	$LCFI84:
 4092 2614 5000BFFF 		sd	$31,80($sp)
 4093              	$LCFI85:
 4094 2618 4000BEFF 		sd	$fp,64($sp)
 4095              	$LCFI86:
 4096 261c 2DF0A003 		move	$fp,$sp
 4097              	$LCFI87:
 4098 2620 0000C4AF 		sw	$4,0($fp)
 4099              	$LM368:
 4100              		.stabn 68,0,969,$LM368
 4101              	$LBB40:
 4102              	$LM369:
GAS LISTING C:\DOCUME~1\Schmidt\LOCALS~1\Temp\ccKmaaaa.s 			page 84


 4103              		.stabn 68,0,977,$LM369
 4104 2624 0000C38F 		lw	$3,0($fp)
 4105 2628 FF036230 		andi	$2,$3,0x3ff
 4106 262c 58000324 		li	$3,88			# 0x58
 4107 2630 18104300 		mult	$2,$2,$3
 4108 2634 0000033C 		la	$3,nsl+22592
 4108      40586324 
 4109 263c 21106200 		addu	$2,$3,$2
 4110 2640 0800C2AF 		sw	$2,8($fp)
 4111              	$LM370:
 4112              		.stabn 68,0,978,$LM370
 4113 2644 0800C28F 		lw	$2,8($fp)
 4114 2648 3C00438C 		lw	$3,60($2)
 4115 264c FF036230 		andi	$2,$3,0x3ff
 4116 2650 2D184000 		move	$3,$2
 4117 2654 80110300 		sll	$2,$3,6
 4118 2658 0100033C 		la	$3,nsl+45120
 4118      40B06324 
 4119 2660 21106200 		addu	$2,$3,$2
 4120 2664 0400C2AF 		sw	$2,4($fp)
 4121              	$LM371:
 4122              		.stabn 68,0,980,$LM371
 4123              	$LBB41:
 4124 2668 0400C28F 		lw	$2,4($fp)
 4125 266c 0800438C 		lw	$3,8($2)
 4126 2670 15006010 		beq	$3,$0,$L230
 4126      00000000 
 4127              	$LM372:
 4128              		.stabn 68,0,981,$LM372
 4129              	$LBB42:
 4130              	$LM373:
 4131              		.stabn 68,0,983,$LM373
 4132 2678 0000013C 		l.s	$f0,nsl+12
 4132      0C0020C4 
 4133 2680 1000C0E7 		s.s	$f0,16($fp)
 4134              	$LM374:
 4135              		.stabn 68,0,984,$LM374
 4136 2684 0000013C 		l.s	$f0,nsl+28
 4136      1C0020C4 
 4137 268c 1400C0E7 		s.s	$f0,20($fp)
 4138              	$LM375:
 4139              		.stabn 68,0,985,$LM375
 4140 2690 0000013C 		l.s	$f0,nsl+44
 4140      2C0020C4 
 4141 2698 1800C0E7 		s.s	$f0,24($fp)
 4142              	$LM376:
 4143              		.stabn 68,0,986,$LM376
 4144 269c 1000C227 		addu	$2,$fp,16
 4145 26a0 0400C48F 		lw	$4,4($fp)
 4146 26a4 10008324 		addu	$3,$4,16
 4147 26a8 0400C48F 		lw	$4,4($fp)
 4148 26ac 1C008624 		addu	$6,$4,28
 4149 26b0 0400C48F 		lw	$4,4($fp)
 4150 26b4 28008724 		addu	$7,$4,40
 4151 26b8 2D204000 		move	$4,$2
 4152 26bc 2D286000 		move	$5,$3
 4153 26c0 0000000C 		jal	nlDistancePointSegment__FRA2_CfT0T0RA2_f
GAS LISTING C:\DOCUME~1\Schmidt\LOCALS~1\Temp\ccKmaaaa.s 			page 85


 4153      00000000 
 4154              	$LBE42:
 4155              	$L230:
 4156              	$LBE41:
 4157              	$LM377:
 4158              		.stabn 68,0,989,$LM377
 4159 26c8 0400C28F 		lw	$2,4($fp)
 4160 26cc 280040C4 		l.s	$f0,40($2)
 4161 26d0 0000013C 		l.s	$f1,nsl+12
 4161      0C0021C4 
 4162 26d8 01000146 		sub.s	$f0,$f0,$f1
 4163 26dc 2000C0E7 		s.s	$f0,32($fp)
 4164              	$LM378:
 4165              		.stabn 68,0,990,$LM378
 4166 26e0 0400C28F 		lw	$2,4($fp)
 4167 26e4 2C0040C4 		l.s	$f0,44($2)
 4168 26e8 0000013C 		l.s	$f1,nsl+28
 4168      1C0021C4 
 4169 26f0 01000146 		sub.s	$f0,$f0,$f1
 4170 26f4 2400C0E7 		s.s	$f0,36($fp)
 4171              	$LM379:
 4172              		.stabn 68,0,991,$LM379
 4173 26f8 0400C28F 		lw	$2,4($fp)
 4174 26fc 300040C4 		l.s	$f0,48($2)
 4175 2700 0000013C 		l.s	$f1,nsl+44
 4175      2C0021C4 
 4176 2708 01000146 		sub.s	$f0,$f0,$f1
 4177 270c 2800C0E7 		s.s	$f0,40($fp)
 4178              	$LM380:
 4179              		.stabn 68,0,992,$LM380
 4180 2710 2000C0C7 		l.s	$f0,32($fp)
 4181 2714 2000C1C7 		l.s	$f1,32($fp)
 4182 2718 02000146 		mul.s	$f0,$f0,$f1
 4183 271c 2400C1C7 		l.s	$f1,36($fp)
 4184 2720 2400C2C7 		l.s	$f2,36($fp)
 4185 2724 42080246 		mul.s	$f1,$f1,$f2
 4186 2728 00000146 		add.s	$f0,$f0,$f1
 4187 272c 2800C1C7 		l.s	$f1,40($fp)
 4188 2730 2800C2C7 		l.s	$f2,40($fp)
 4189 2734 42080246 		mul.s	$f1,$f1,$f2
 4190 2738 00000146 		add.s	$f0,$f0,$f1
 4191 273c 2C00C0E7 		s.s	$f0,44($fp)
 4192              	$LM381:
 4193              		.stabn 68,0,995,$LM381
 4194 2740 0800C28F 		lw	$2,8($fp)
 4195 2744 500040C4 		l.s	$f0,80($2)
 4196 2748 00088044 		mtc1	$0,$f1
 4197 274c 34000146 		c.lt.s	$f0,$f1
 4198 2750 05000045 		bc1f	$L231
 4198      00000000 
 4199              	$LM382:
 4200              		.stabn 68,0,996,$LM382
 4201 2758 0000043C 		la	$4,$LC17
 4201      B8028424 
 4202 2760 0000000C 		jal	nslFatal__FPCce
 4202      00000000 
 4203              	$L231:
GAS LISTING C:\DOCUME~1\Schmidt\LOCALS~1\Temp\ccKmaaaa.s 			page 86


 4204              	$LM383:
 4205              		.stabn 68,0,997,$LM383
 4206 2768 0800C28F 		lw	$2,8($fp)
 4207 276c 540040C4 		l.s	$f0,84($2)
 4208 2770 00088044 		mtc1	$0,$f1
 4209 2774 34000146 		c.lt.s	$f0,$f1
 4210 2778 05000045 		bc1f	$L232
 4210      00000000 
 4211              	$LM384:
 4212              		.stabn 68,0,998,$LM384
 4213 2780 0000043C 		la	$4,$LC17
 4213      B8028424 
 4214 2788 0000000C 		jal	nslFatal__FPCce
 4214      00000000 
 4215              	$L232:
 4216              	$LM385:
 4217              		.stabn 68,0,1005,$LM385
 4218 2790 0800C28F 		lw	$2,8($fp)
 4219 2794 0800C38F 		lw	$3,8($fp)
 4220 2798 500040C4 		l.s	$f0,80($2)
 4221 279c 500061C4 		l.s	$f1,80($3)
 4222 27a0 02000146 		mul.s	$f0,$f0,$f1
 4223 27a4 3000C0E7 		s.s	$f0,48($fp)
 4224              	$LM386:
 4225              		.stabn 68,0,1006,$LM386
 4226 27a8 0800C28F 		lw	$2,8($fp)
 4227 27ac 0800C38F 		lw	$3,8($fp)
 4228 27b0 540040C4 		l.s	$f0,84($2)
 4229 27b4 540061C4 		l.s	$f1,84($3)
 4230 27b8 02000146 		mul.s	$f0,$f0,$f1
 4231 27bc 3400C0E7 		s.s	$f0,52($fp)
 4232              	$LM387:
 4233              		.stabn 68,0,1009,$LM387
 4234 27c0 2C00C0C7 		l.s	$f0,44($fp)
 4235 27c4 3400C1C7 		l.s	$f1,52($fp)
 4236 27c8 34080046 		c.lt.s	$f1,$f0
 4237 27cc 08000045 		bc1f	$L233
 4237      00000000 
 4238              	$LM388:
 4239              		.stabn 68,0,1011,$LM388
 4240 27d4 0800C28F 		lw	$2,8($fp)
 4241 27d8 440040AC 		sw	$0,68($2)
 4242              	$LM389:
 4243              		.stabn 68,0,1012,$LM389
 4244 27dc 2D100000 		move	$2,$0
 4245 27e0 21000010 		b	$L229
 4245      00000000 
 4246 27e8 1B000010 		b	$L234
 4246      00000000 
 4247              		.p2align 2
 4248              	$L233:
 4249              	$LM390:
 4250              		.stabn 68,0,1014,$LM390
 4251 27f0 2C00C0C7 		l.s	$f0,44($fp)
 4252 27f4 3000C1C7 		l.s	$f1,48($fp)
 4253 27f8 34000146 		c.lt.s	$f0,$f1
 4254 27fc 0A000045 		bc1f	$L235
GAS LISTING C:\DOCUME~1\Schmidt\LOCALS~1\Temp\ccKmaaaa.s 			page 87


 4254      00000000 
 4255              	$LM391:
 4256              		.stabn 68,0,1016,$LM391
 4257 2804 0800C28F 		lw	$2,8($fp)
 4258 2808 803F013C 		li.s	$f0,1.00000000000000000000e0
 4258      00008144 
 4259 2810 440040E4 		s.s	$f0,68($2)
 4260              	$LM392:
 4261              		.stabn 68,0,1017,$LM392
 4262 2814 01000224 		li	$2,1			# 0x1
 4263 2818 13000010 		b	$L229
 4263      00000000 
 4264 2820 0D000010 		b	$L234
 4264      00000000 
 4265              		.p2align 2
 4266              	$L235:
 4267              	$LM393:
 4268              		.stabn 68,0,1021,$LM393
 4269 2828 0800C28F 		lw	$2,8($fp)
 4270 282c 3400C0C7 		l.s	$f0,52($fp)
 4271 2830 2C00C1C7 		l.s	$f1,44($fp)
 4272 2834 01000146 		sub.s	$f0,$f0,$f1
 4273 2838 3400C1C7 		l.s	$f1,52($fp)
 4274 283c 3000C2C7 		l.s	$f2,48($fp)
 4275 2840 41080246 		sub.s	$f1,$f1,$f2
 4276 2844 03000146 		div.s	$f0,$f0,$f1
 4277 2848 440040E4 		s.s	$f0,68($2)
 4278              	$LM394:
 4279              		.stabn 68,0,1022,$LM394
 4280 284c 01000224 		li	$2,1			# 0x1
 4281 2850 05000010 		b	$L229
 4281      00000000 
 4282              		.p2align 2
 4283              	$L236:
 4284              	$L234:
 4285              	$LBE40:
 4286 2858 03000010 		b	$L237
 4286      00000000 
 4287 2860 01000010 		b	$L229
 4287      00000000 
 4288              		.p2align 2
 4289              	$L237:
 4290              	$LM395:
 4291              		.stabn 68,0,1024,$LM395
 4292              	$L229:
 4293 2868 2DE8C003 		move	$sp,$fp
 4294 286c 5000BFDF 		ld	$31,80($sp)
 4295 2870 4000BEDF 		ld	$fp,64($sp)
 4296 2874 6000BD27 		addu	$sp,$sp,96
 4297 2878 0800E003 		j	$31
 4297      00000000 
 4298              		.end	_setSoundPosVolume__FUi
 4299              	$LFE22:
 4300              	.stabs "_setSoundPosVolume__FUi:F21",36,0,969,_setSoundPosVolume__FUi
 4301              	.stabs "whichSound:p42",160,0,969,-96
 4302              	.stabs "e:254",128,0,974,-92
 4303              	.stabs "snd:233",128,0,975,-88
GAS LISTING C:\DOCUME~1\Schmidt\LOCALS~1\Temp\ccKmaaaa.s 			page 88


 4304              	.stabs "xDist:14",128,0,989,-64
 4305              	.stabs "yDist:14",128,0,990,-60
 4306              	.stabs "zDist:14",128,0,991,-56
 4307              	.stabs "distanceSQ:14",128,0,992,-52
 4308              	.stabs "minDistSQ:14",128,0,1005,-48
 4309              	.stabs "maxDistSQ:14",128,0,1006,-44
 4310              	.stabn 192,0,0,$LBB40
 4311              	.stabn 192,0,0,$LBB41
 4312              	.stabs "listenerPos:39",128,0,982,-80
 4313              	.stabn 192,0,0,$LBB42
 4314              	.stabn 224,0,0,$LBE42
 4315              	.stabn 224,0,0,$LBE41
 4316              	.stabn 224,0,0,$LBE40
 4317              	$Lscope21:
 4318              	.stabs "",36,0,0,$Lscope21-_setSoundPosVolume__FUi
 4319              		.p2align 3
 4320              		.globl	_setSoundAngle__FUi
 4321              	$LFB23:
 4322              	$LM396:
 4323              		.stabn 68,0,1030,$LM396
 4324              	.stabs "nsl_ps2_sound.cpp",132,0,0,$Ltext0
 4325              		.ent	_setSoundAngle__FUi
 4326              	_setSoundAngle__FUi:
 4327              		.frame	$fp,144,$31		# vars= 96, regs= 6/0, args= 0, extra= 0
 4328              		.mask	0xc0010000,-16
 4329              		.fmask	0x00000000,0
 4330 2880 70FFBD27 		subu	$sp,$sp,144
 4331              	$LCFI88:
 4332 2884 8000BFFF 		sd	$31,128($sp)
 4333              	$LCFI89:
 4334 2888 7000BEFF 		sd	$fp,112($sp)
 4335              	$LCFI90:
 4336 288c 6000B0FF 		sd	$16,96($sp)
 4337              	$LCFI91:
 4338 2890 2DF0A003 		move	$fp,$sp
 4339              	$LCFI92:
 4340 2894 0000C4AF 		sw	$4,0($fp)
 4341              	$LM397:
 4342              		.stabn 68,0,1030,$LM397
 4343              	$LBB43:
 4344              	$LM398:
 4345              		.stabn 68,0,1034,$LM398
 4346 2898 0000C38F 		lw	$3,0($fp)
 4347 289c FF036230 		andi	$2,$3,0x3ff
 4348 28a0 58000324 		li	$3,88			# 0x58
 4349 28a4 18104300 		mult	$2,$2,$3
 4350 28a8 0000033C 		la	$3,nsl+22592
 4350      40586324 
 4351 28b0 21106200 		addu	$2,$3,$2
 4352 28b4 5000C2AF 		sw	$2,80($fp)
 4353              	$LM399:
 4354              		.stabn 68,0,1037,$LM399
 4355 28b8 00008044 		mtc1	$0,$f0
 4356 28bc 1400C0E7 		s.s	$f0,20($fp)
 4357 28c0 1000C0E7 		s.s	$f0,16($fp)
 4358 28c4 80BF013C 		li.s	$f0,-1.00000000000000000000e0
 4358      00008144 
GAS LISTING C:\DOCUME~1\Schmidt\LOCALS~1\Temp\ccKmaaaa.s 			page 89


 4359 28cc 1800C0E7 		s.s	$f0,24($fp)
 4360              	$LM400:
 4361              		.stabn 68,0,1038,$LM400
 4362 28d0 00008044 		mtc1	$0,$f0
 4363 28d4 3800C0E7 		s.s	$f0,56($fp)
 4364 28d8 3000C0E7 		s.s	$f0,48($fp)
 4365 28dc 803F013C 		li.s	$f0,1.00000000000000000000e0
 4365      00008144 
 4366 28e4 3400C0E7 		s.s	$f0,52($fp)
 4367              	$LM401:
 4368              		.stabn 68,0,1040,$LM401
 4369 28e8 5000C28F 		lw	$2,80($fp)
 4370 28ec 3C00438C 		lw	$3,60($2)
 4371 28f0 FF036230 		andi	$2,$3,0x3ff
 4372 28f4 2D184000 		move	$3,$2
 4373 28f8 80110300 		sll	$2,$3,6
 4374 28fc 0100033C 		la	$3,nsl+45160
 4374      68B06324 
 4375 2904 21106200 		addu	$2,$3,$2
 4376 2908 0000013C 		l.s	$f0,nsl+12
 4376      0C0020C4 
 4377 2910 000041C4 		l.s	$f1,0($2)
 4378 2914 01000146 		sub.s	$f0,$f0,$f1
 4379 2918 2000C0E7 		s.s	$f0,32($fp)
 4380              	$LM402:
 4381              		.stabn 68,0,1041,$LM402
 4382 291c 5000C28F 		lw	$2,80($fp)
 4383 2920 3C00438C 		lw	$3,60($2)
 4384 2924 FF036230 		andi	$2,$3,0x3ff
 4385 2928 2D184000 		move	$3,$2
 4386 292c 80110300 		sll	$2,$3,6
 4387 2930 0100033C 		la	$3,nsl+45164
 4387      6CB06324 
 4388 2938 21106200 		addu	$2,$3,$2
 4389 293c 0000013C 		l.s	$f0,nsl+28
 4389      1C0020C4 
 4390 2944 000041C4 		l.s	$f1,0($2)
 4391 2948 01000146 		sub.s	$f0,$f0,$f1
 4392 294c 2400C0E7 		s.s	$f0,36($fp)
 4393              	$LM403:
 4394              		.stabn 68,0,1042,$LM403
 4395 2950 5000C28F 		lw	$2,80($fp)
 4396 2954 3C00438C 		lw	$3,60($2)
 4397 2958 FF036230 		andi	$2,$3,0x3ff
 4398 295c 2D184000 		move	$3,$2
 4399 2960 80110300 		sll	$2,$3,6
 4400 2964 0100033C 		la	$3,nsl+45168
 4400      70B06324 
 4401 296c 21106200 		addu	$2,$3,$2
 4402 2970 0000013C 		l.s	$f0,nsl+44
 4402      2C0020C4 
 4403 2978 000041C4 		l.s	$f1,0($2)
 4404 297c 01000146 		sub.s	$f0,$f0,$f1
 4405 2980 2800C0E7 		s.s	$f0,40($fp)
 4406              	$LM404:
 4407              		.stabn 68,0,1048,$LM404
 4408 2984 2000C0C7 		l.s	$f0,32($fp)
GAS LISTING C:\DOCUME~1\Schmidt\LOCALS~1\Temp\ccKmaaaa.s 			page 90


 4409 2988 2000C1C7 		l.s	$f1,32($fp)
 4410 298c 02000146 		mul.s	$f0,$f0,$f1
 4411 2990 2400C1C7 		l.s	$f1,36($fp)
 4412 2994 2400C2C7 		l.s	$f2,36($fp)
 4413 2998 42080246 		mul.s	$f1,$f1,$f2
 4414 299c 00000146 		add.s	$f0,$f0,$f1
 4415 29a0 2800C1C7 		l.s	$f1,40($fp)
 4416 29a4 2800C2C7 		l.s	$f2,40($fp)
 4417 29a8 42080246 		mul.s	$f1,$f1,$f2
 4418 29ac 00000146 		add.s	$f0,$f0,$f1
 4419 29b0 06030046 		mov.s	$f12,$f0
 4420 29b4 0000000C 		jal	sqrtf
 4420      00000000 
 4421 29bc 5400C0E7 		s.s	$f0,84($fp)
 4422              	$LM405:
 4423              		.stabn 68,0,1051,$LM405
 4424 29c0 5400CCC7 		l.s	$f12,84($fp)
 4425 29c4 0000000C 		jal	fptodp
 4425      00000000 
 4426 29cc 2D204000 		move	$4,$2
 4427 29d0 0000013C 		li.d	$5,1.00000000000000004792e-4
 4427      D80225DC 
 4428 29d8 0000000C 		jal	dpcmp
 4428      00000000 
 4429 29e0 05004104 		bgez	$2,$L239
 4429      00000000 
 4430 29e8 D138013C 		li.s	$f0,9.99999974737875163555e-5
 4430      17B72134 
 4430      00008144 
 4431 29f4 5400C0E7 		s.s	$f0,84($fp)
 4432              	$L239:
 4433              	$LM406:
 4434              		.stabn 68,0,1053,$LM406
 4435 29f8 2000C0C7 		l.s	$f0,32($fp)
 4436 29fc 5400C1C7 		l.s	$f1,84($fp)
 4437 2a00 03000146 		div.s	$f0,$f0,$f1
 4438 2a04 2000C0E7 		s.s	$f0,32($fp)
 4439 2a08 2400C0C7 		l.s	$f0,36($fp)
 4440 2a0c 5400C1C7 		l.s	$f1,84($fp)
 4441 2a10 03000146 		div.s	$f0,$f0,$f1
 4442 2a14 2400C0E7 		s.s	$f0,36($fp)
 4443 2a18 2800C0C7 		l.s	$f0,40($fp)
 4444 2a1c 5400C1C7 		l.s	$f1,84($fp)
 4445 2a20 03000146 		div.s	$f0,$f0,$f1
 4446 2a24 2800C0E7 		s.s	$f0,40($fp)
 4447              	$LM407:
 4448              		.stabn 68,0,1056,$LM407
 4449 2a28 1000C327 		addu	$3,$fp,16
 4450 2a2c 1000C227 		addu	$2,$fp,16
 4451 2a30 2D206000 		move	$4,$3
 4452 2a34 0000053C 		la	$5,nsl
 4452      0000A524 
 4453 2a3c 2D304000 		move	$6,$2
 4454 2a40 0000000C 		jal	nlTransformVector__FPfPA3_fT0
 4454      00000000 
 4455              	$LM408:
 4456              		.stabn 68,0,1060,$LM408
GAS LISTING C:\DOCUME~1\Schmidt\LOCALS~1\Temp\ccKmaaaa.s 			page 91


 4457 2a48 1000C0C7 		l.s	$f0,16($fp)
 4458 2a4c 1000C1C7 		l.s	$f1,16($fp)
 4459 2a50 02000146 		mul.s	$f0,$f0,$f1
 4460 2a54 1400C1C7 		l.s	$f1,20($fp)
 4461 2a58 1400C2C7 		l.s	$f2,20($fp)
 4462 2a5c 42080246 		mul.s	$f1,$f1,$f2
 4463 2a60 00000146 		add.s	$f0,$f0,$f1
 4464 2a64 1800C1C7 		l.s	$f1,24($fp)
 4465 2a68 1800C2C7 		l.s	$f2,24($fp)
 4466 2a6c 42080246 		mul.s	$f1,$f1,$f2
 4467 2a70 00000146 		add.s	$f0,$f0,$f1
 4468 2a74 06030046 		mov.s	$f12,$f0
 4469 2a78 0000000C 		jal	sqrtf
 4469      00000000 
 4470 2a80 5400C0E7 		s.s	$f0,84($fp)
 4471              	$LM409:
 4472              		.stabn 68,0,1061,$LM409
 4473 2a84 1000C0C7 		l.s	$f0,16($fp)
 4474 2a88 5400C1C7 		l.s	$f1,84($fp)
 4475 2a8c 03000146 		div.s	$f0,$f0,$f1
 4476 2a90 1000C0E7 		s.s	$f0,16($fp)
 4477 2a94 1400C0C7 		l.s	$f0,20($fp)
 4478 2a98 5400C1C7 		l.s	$f1,84($fp)
 4479 2a9c 03000146 		div.s	$f0,$f0,$f1
 4480 2aa0 1400C0E7 		s.s	$f0,20($fp)
 4481 2aa4 1800C0C7 		l.s	$f0,24($fp)
 4482 2aa8 5400C1C7 		l.s	$f1,84($fp)
 4483 2aac 03000146 		div.s	$f0,$f0,$f1
 4484 2ab0 1800C0E7 		s.s	$f0,24($fp)
 4485              	$LM410:
 4486              		.stabn 68,0,1064,$LM410
 4487 2ab4 2000C227 		addu	$2,$fp,32
 4488 2ab8 1000C327 		addu	$3,$fp,16
 4489 2abc 2D204000 		move	$4,$2
 4490 2ac0 2D286000 		move	$5,$3
 4491 2ac4 0000000C 		jal	nlDotProduct3d__FPfT0
 4491      00000000 
 4492 2acc 5800C0E7 		s.s	$f0,88($fp)
 4493              	$LM411:
 4494              		.stabn 68,0,1066,$LM411
 4495              	$LBB44:
 4496 2ad0 5800CCC7 		l.s	$f12,88($fp)
 4497 2ad4 0000000C 		jal	fptodp
 4497      00000000 
 4498 2adc 2D204000 		move	$4,$2
 4499 2ae0 0000013C 		li.d	$5,9.98999999999999999112e-1
 4499      E00225DC 
 4500 2ae8 0000000C 		jal	dpcmp
 4500      00000000 
 4501 2af0 05004004 		bltz	$2,$L240
 4501      00000000 
 4502              	$LM412:
 4503              		.stabn 68,0,1067,$LM412
 4504 2af8 5000C28F 		lw	$2,80($fp)
 4505 2afc 480040AC 		sw	$0,72($2)
 4506 2b00 6F000010 		b	$L241
 4506      00000000 
GAS LISTING C:\DOCUME~1\Schmidt\LOCALS~1\Temp\ccKmaaaa.s 			page 92


 4507              		.p2align 2
 4508              	$L240:
 4509              	$LM413:
 4510              		.stabn 68,0,1069,$LM413
 4511              	$LBB45:
 4512              	$LBB46:
 4513 2b08 5800CCC7 		l.s	$f12,88($fp)
 4514 2b0c 0000000C 		jal	fptodp
 4514      00000000 
 4515 2b14 2D204000 		move	$4,$2
 4516 2b18 0000013C 		li.d	$5,-9.98999999999999999112e-1
 4516      E80225DC 
 4517 2b20 0000000C 		jal	dpcmp
 4517      00000000 
 4518 2b28 0800401C 		bgtz	$2,$L242
 4518      00000000 
 4519              	$LM414:
 4520              		.stabn 68,0,1071,$LM414
 4521 2b30 5000C28F 		lw	$2,80($fp)
 4522 2b34 4940013C 		li.s	$f0,3.14159274101257324219e0
 4522      DB0F2134 
 4522      00008144 
 4523 2b40 480040E4 		s.s	$f0,72($2)
 4524 2b44 5E000010 		b	$L241
 4524      00000000 
 4525              		.p2align 2
 4526              	$L242:
 4527              	$LM415:
 4528              		.stabn 68,0,1074,$LM415
 4529              	$LBB47:
 4530              	$LM416:
 4531              		.stabn 68,0,1078,$LM416
 4532 2b4c 4000C227 		addu	$2,$fp,64
 4533 2b50 2000C327 		addu	$3,$fp,32
 4534 2b54 1000C627 		addu	$6,$fp,16
 4535 2b58 2D204000 		move	$4,$2
 4536 2b5c 2D286000 		move	$5,$3
 4537 2b60 0000000C 		jal	nlCrossProduct3d__FPfT0T0
 4537      00000000 
 4538              	$LM417:
 4539              		.stabn 68,0,1079,$LM417
 4540 2b68 3000C327 		addu	$3,$fp,48
 4541 2b6c 3000C227 		addu	$2,$fp,48
 4542 2b70 2D206000 		move	$4,$3
 4543 2b74 0000053C 		la	$5,nsl
 4543      0000A524 
 4544 2b7c 2D304000 		move	$6,$2
 4545 2b80 0000000C 		jal	nlTransformVector__FPfPA3_fT0
 4545      00000000 
 4546              	$LM418:
 4547              		.stabn 68,0,1082,$LM418
 4548 2b88 3000C0C7 		l.s	$f0,48($fp)
 4549 2b8c 3000C1C7 		l.s	$f1,48($fp)
 4550 2b90 02000146 		mul.s	$f0,$f0,$f1
 4551 2b94 3400C1C7 		l.s	$f1,52($fp)
 4552 2b98 3400C2C7 		l.s	$f2,52($fp)
 4553 2b9c 42080246 		mul.s	$f1,$f1,$f2
GAS LISTING C:\DOCUME~1\Schmidt\LOCALS~1\Temp\ccKmaaaa.s 			page 93


 4554 2ba0 00000146 		add.s	$f0,$f0,$f1
 4555 2ba4 3800C1C7 		l.s	$f1,56($fp)
 4556 2ba8 3800C2C7 		l.s	$f2,56($fp)
 4557 2bac 42080246 		mul.s	$f1,$f1,$f2
 4558 2bb0 00000146 		add.s	$f0,$f0,$f1
 4559 2bb4 06030046 		mov.s	$f12,$f0
 4560 2bb8 0000000C 		jal	sqrtf
 4560      00000000 
 4561 2bc0 5400C0E7 		s.s	$f0,84($fp)
 4562              	$LM419:
 4563              		.stabn 68,0,1083,$LM419
 4564 2bc4 3000C0C7 		l.s	$f0,48($fp)
 4565 2bc8 5400C1C7 		l.s	$f1,84($fp)
 4566 2bcc 03000146 		div.s	$f0,$f0,$f1
 4567 2bd0 3000C0E7 		s.s	$f0,48($fp)
 4568 2bd4 3400C0C7 		l.s	$f0,52($fp)
 4569 2bd8 5400C1C7 		l.s	$f1,84($fp)
 4570 2bdc 03000146 		div.s	$f0,$f0,$f1
 4571 2be0 3400C0E7 		s.s	$f0,52($fp)
 4572 2be4 3800C0C7 		l.s	$f0,56($fp)
 4573 2be8 5400C1C7 		l.s	$f1,84($fp)
 4574 2bec 03000146 		div.s	$f0,$f0,$f1
 4575 2bf0 3800C0E7 		s.s	$f0,56($fp)
 4576              	$LM420:
 4577              		.stabn 68,0,1085,$LM420
 4578 2bf4 3000C227 		addu	$2,$fp,48
 4579 2bf8 4000C327 		addu	$3,$fp,64
 4580 2bfc 2D204000 		move	$4,$2
 4581 2c00 2D286000 		move	$5,$3
 4582 2c04 0000000C 		jal	nlDotProduct3d__FPfT0
 4582      00000000 
 4583 2c0c 5C00C0E7 		s.s	$f0,92($fp)
 4584              	$LM421:
 4585              		.stabn 68,0,1086,$LM421
 4586 2c10 5800CCC7 		l.s	$f12,88($fp)
 4587 2c14 0000000C 		jal	acosf
 4587      00000000 
 4588 2c1c 5000C28F 		lw	$2,80($fp)
 4589 2c20 480040E4 		s.s	$f0,72($2)
 4590              	$LM422:
 4591              		.stabn 68,0,1087,$LM422
 4592 2c24 5C00CCC7 		l.s	$f12,92($fp)
 4593 2c28 0000000C 		jal	fptodp
 4593      00000000 
 4594 2c30 2D204000 		move	$4,$2
 4595 2c34 2D280000 		move	$5,$0
 4596 2c38 0000000C 		jal	dpcmp
 4596      00000000 
 4597 2c40 06004004 		bltz	$2,$L244
 4597      00000000 
 4598 2c48 5000C28F 		lw	$2,80($fp)
 4599 2c4c 5000C38F 		lw	$3,80($fp)
 4600 2c50 480060C4 		l.s	$f0,72($3)
 4601 2c54 47000046 		neg.s	$f1,$f0
 4602 2c58 480041E4 		s.s	$f1,72($2)
 4603              	$L244:
 4604              		.set	noreorder
GAS LISTING C:\DOCUME~1\Schmidt\LOCALS~1\Temp\ccKmaaaa.s 			page 94


 4605 2c5c 00000000 		nop
 4606              		.set	reorder
 4607              	$LM423:
 4608              		.stabn 68,0,1089,$LM423
 4609              		.p2align 3
 4610              	$L245:
 4611 2c60 5000C28F 		lw	$2,80($fp)
 4612 2c64 480040C4 		l.s	$f0,72($2)
 4613 2c68 00088044 		mtc1	$0,$f1
 4614 2c6c 34000146 		c.lt.s	$f0,$f1
 4615 2c70 03000145 		bc1t	$L247
 4615      00000000 
 4616 2c78 11000010 		b	$L241
 4616      00000000 
 4617              		.p2align 2
 4618              	$L247:
 4619              	$LM424:
 4620              		.stabn 68,0,1090,$LM424
 4621 2c80 5000D08F 		lw	$16,80($fp)
 4622 2c84 5000C28F 		lw	$2,80($fp)
 4623 2c88 48004CC4 		l.s	$f12,72($2)
 4624 2c8c 0000000C 		jal	fptodp
 4624      00000000 
 4625 2c94 2D204000 		move	$4,$2
 4626 2c98 0000013C 		li.d	$5,6.28318530717958623200e0
 4626      F00225DC 
 4627 2ca0 0000000C 		jal	dpadd
 4627      00000000 
 4628 2ca8 2D204000 		move	$4,$2
 4629 2cac 0000000C 		jal	dptofp
 4629      00000000 
 4630 2cb4 480000E6 		s.s	$f0,72($16)
 4631 2cb8 E9FF0010 		b	$L245
 4631      00000000 
 4632              		.p2align 2
 4633              	$L246:
 4634              	$LBE47:
 4635              	$L243:
 4636              	$LBE46:
 4637              	$LBE45:
 4638              	$L241:
 4639              	$LBE44:
 4640              	$LBE43:
 4641 2cc0 03000010 		b	$L248
 4641      00000000 
 4642 2cc8 01000010 		b	$L238
 4642      00000000 
 4643              		.p2align 2
 4644              	$L248:
 4645              	$LM425:
 4646              		.stabn 68,0,1094,$LM425
 4647              	$L238:
 4648 2cd0 2DE8C003 		move	$sp,$fp
 4649 2cd4 8000BFDF 		ld	$31,128($sp)
 4650 2cd8 7000BEDF 		ld	$fp,112($sp)
 4651 2cdc 6000B0DF 		ld	$16,96($sp)
 4652 2ce0 9000BD27 		addu	$sp,$sp,144
GAS LISTING C:\DOCUME~1\Schmidt\LOCALS~1\Temp\ccKmaaaa.s 			page 95


 4653 2ce4 0800E003 		j	$31
 4653      00000000 
 4654              		.end	_setSoundAngle__FUi
 4655              	$LFE23:
 4656              	.stabs "_setSoundAngle__FUi:F22",36,0,1030,_setSoundAngle__FUi
 4657              	.stabs "whichSound:p42",160,0,1030,-144
 4658              	.stabs "forward:39",128,0,1032,-128
 4659              	.stabs "toSound:39",128,0,1032,-112
 4660              	.stabs "up:39",128,0,1032,-96
 4661              	.stabs "newUp:39",128,0,1032,-80
 4662              	.stabs "snd:233",128,0,1034,-64
 4663              	.stabs "length:14",128,0,1048,-60
 4664              	.stabs "cosTheta:14",128,0,1064,-56
 4665              	.stabn 192,0,0,$LBB43
 4666              	.stabn 192,0,0,$LBB44
 4667              	.stabn 192,0,0,$LBB45
 4668              	.stabn 192,0,0,$LBB46
 4669              	.stabs "cosPhi:14",128,0,1085,-52
 4670              	.stabn 192,0,0,$LBB47
 4671              	.stabn 224,0,0,$LBE47
 4672              	.stabn 224,0,0,$LBE46
 4673              	.stabn 224,0,0,$LBE45
 4674              	.stabn 224,0,0,$LBE44
 4675              	.stabn 224,0,0,$LBE43
 4676              	$Lscope22:
 4677              	.stabs "",36,0,0,$Lscope22-_setSoundAngle__FUi
 4678 2cec 00000000 		.p2align 3
 4679              		.weak	push__t10fifo_queue1ZUiRCUi
 4680              	$LFB24:
 4681              	.stabs "../ps2/fifo_queue.cpp",132,0,0,$Ltext1
 4682              	$Ltext1:
 4683              	$LM426:
 4684              		.stabn 68,0,54,$LM426
 4685              	.stabs "../ps2/fifo_queue.cpp",132,0,0,$Ltext0
 4686              		.ent	push__t10fifo_queue1ZUiRCUi
 4687              	push__t10fifo_queue1ZUiRCUi:
 4688              		.frame	$fp,32,$31		# vars= 16, regs= 2/0, args= 0, extra= 0
 4689              		.mask	0x40000000,-16
 4690              		.fmask	0x00000000,0
 4691 2cf0 E0FFBD27 		subu	$sp,$sp,32
 4692              	$LCFI93:
 4693 2cf4 1000BEFF 		sd	$fp,16($sp)
 4694              	$LCFI94:
 4695 2cf8 2DF0A003 		move	$fp,$sp
 4696              	$LCFI95:
 4697 2cfc 2D188000 		move	$3,$4
 4698 2d00 0000C5AF 		sw	$5,0($fp)
 4699              	$LM427:
 4700              		.stabn 68,0,54,$LM427
 4701              	$LBB48:
 4702              	$LM428:
 4703              		.stabn 68,0,55,$LM428
 4704 2d04 0A006284 		lh	$2,10($3)
 4705 2d08 04006484 		lh	$4,4($3)
 4706 2d0c 2A104400 		slt	$2,$2,$4
 4707 2d10 04004014 		bne	$2,$0,$L250
 4707      00000000 
GAS LISTING C:\DOCUME~1\Schmidt\LOCALS~1\Temp\ccKmaaaa.s 			page 96


 4708              	$LM429:
 4709              		.stabn 68,0,57,$LM429
 4710 2d18 2D100000 		move	$2,$0
 4711 2d1c 1D000010 		b	$L249
 4711      00000000 
 4712              		.p2align 2
 4713              	$L250:
 4714              	$LM430:
 4715              		.stabn 68,0,59,$LM430
 4716 2d24 08006294 		lhu	$2,8($3)
 4717 2d28 01004424 		addu	$4,$2,1
 4718 2d2c 080064A4 		sh	$4,8($3)
 4719              	$LM431:
 4720              		.stabn 68,0,60,$LM431
 4721 2d30 08006284 		lh	$2,8($3)
 4722 2d34 04006484 		lh	$4,4($3)
 4723 2d38 2A104400 		slt	$2,$2,$4
 4724 2d3c 02004014 		bne	$2,$0,$L251
 4724      00000000 
 4725              	$LM432:
 4726              		.stabn 68,0,62,$LM432
 4727 2d44 080060A4 		sh	$0,8($3)
 4728              	$L251:
 4729              	$LM433:
 4730              		.stabn 68,0,64,$LM433
 4731 2d48 08006284 		lh	$2,8($3)
 4732 2d4c 2D204000 		move	$4,$2
 4733 2d50 80100400 		sll	$2,$4,2
 4734 2d54 0000648C 		lw	$4,0($3)
 4735 2d58 21104400 		addu	$2,$2,$4
 4736 2d5c 0000C48F 		lw	$4,0($fp)
 4737 2d60 0000858C 		lw	$5,0($4)
 4738 2d64 000045AC 		sw	$5,0($2)
 4739              	$LM434:
 4740              		.stabn 68,0,65,$LM434
 4741 2d68 0A006294 		lhu	$2,10($3)
 4742 2d6c 01004424 		addu	$4,$2,1
 4743 2d70 0A0064A4 		sh	$4,10($3)
 4744              	$LM435:
 4745              		.stabn 68,0,66,$LM435
 4746 2d74 0A006484 		lh	$4,10($3)
 4747 2d78 2D108000 		move	$2,$4
 4748 2d7c 05000010 		b	$L249
 4748      00000000 
 4749              	$LBE48:
 4750 2d84 03000010 		b	$L252
 4750      00000000 
 4751 2d8c 01000010 		b	$L249
 4751      00000000 
 4752              		.p2align 2
 4753              	$L252:
 4754              	$LM436:
 4755              		.stabn 68,0,66,$LM436
 4756              	$L249:
 4757 2d94 2DE8C003 		move	$sp,$fp
 4758 2d98 1000BEDF 		ld	$fp,16($sp)
 4759 2d9c 2000BD27 		addu	$sp,$sp,32
GAS LISTING C:\DOCUME~1\Schmidt\LOCALS~1\Temp\ccKmaaaa.s 			page 97


 4760 2da0 0800E003 		j	$31
 4760      00000000 
 4761              		.end	push__t10fifo_queue1ZUiRCUi
 4762              	$LFE24:
 4763              	.stabs "push__t10fifo_queue1ZUiRCUi:F8",36,0,54,push__t10fifo_queue1ZUiRCUi
 4764              	.stabs "this:P240",64,0,54,3
 4765              	.stabs "index_to_add:p292=&42",160,0,54,-32
 4766              	.stabn 192,0,0,$LBB48
 4767              	.stabn 224,0,0,$LBE48
 4768              	$Lscope23:
 4769              	.stabs "",36,0,0,$Lscope23-push__t10fifo_queue1ZUiRCUi
 4770              		.p2align 3
 4771              		.weak	pop__t10fifo_queue1ZUi
 4772              	$LFB25:
 4773              	$LM437:
 4774              		.stabn 68,0,101,$LM437
 4775              	.stabs "../ps2/fifo_queue.cpp",132,0,0,$Ltext0
 4776              		.ent	pop__t10fifo_queue1ZUi
 4777              	pop__t10fifo_queue1ZUi:
 4778              		.frame	$fp,32,$31		# vars= 16, regs= 2/0, args= 0, extra= 0
 4779              		.mask	0x40000000,-16
 4780              		.fmask	0x00000000,0
 4781 2da8 E0FFBD27 		subu	$sp,$sp,32
 4782              	$LCFI96:
 4783 2dac 1000BEFF 		sd	$fp,16($sp)
 4784              	$LCFI97:
 4785 2db0 2DF0A003 		move	$fp,$sp
 4786              	$LCFI98:
 4787 2db4 2D188000 		move	$3,$4
 4788              	$LM438:
 4789              		.stabn 68,0,101,$LM438
 4790              	$LBB49:
 4791              	$LM439:
 4792              		.stabn 68,0,102,$LM439
 4793 2db8 06006284 		lh	$2,6($3)
 4794 2dbc 2D204000 		move	$4,$2
 4795 2dc0 80100400 		sll	$2,$4,2
 4796 2dc4 0000648C 		lw	$4,0($3)
 4797 2dc8 21104400 		addu	$2,$2,$4
 4798 2dcc 0000448C 		lw	$4,0($2)
 4799 2dd0 0000C4AF 		sw	$4,0($fp)
 4800              	$LM440:
 4801              		.stabn 68,0,104,$LM440
 4802 2dd4 0A006284 		lh	$2,10($3)
 4803 2dd8 05004014 		bne	$2,$0,$L258
 4803      00000000 
 4804              	$LM441:
 4805              		.stabn 68,0,105,$LM441
 4806 2de0 FFFF023C 		li	$2,4294901760			# 0xffff0000
 4807 2de4 FFFF4234 		ori	$2,$2,0xffff
 4808 2de8 11000010 		b	$L257
 4808      00000000 
 4809              		.p2align 2
 4810              	$L258:
 4811              	$LM442:
 4812              		.stabn 68,0,107,$LM442
 4813 2df0 06006294 		lhu	$2,6($3)
GAS LISTING C:\DOCUME~1\Schmidt\LOCALS~1\Temp\ccKmaaaa.s 			page 98


 4814 2df4 01004424 		addu	$4,$2,1
 4815 2df8 060064A4 		sh	$4,6($3)
 4816              	$LM443:
 4817              		.stabn 68,0,108,$LM443
 4818 2dfc 06006284 		lh	$2,6($3)
 4819 2e00 04006484 		lh	$4,4($3)
 4820 2e04 2A104400 		slt	$2,$2,$4
 4821 2e08 02004014 		bne	$2,$0,$L259
 4821      00000000 
 4822              	$LM444:
 4823              		.stabn 68,0,110,$LM444
 4824 2e10 060060A4 		sh	$0,6($3)
 4825              	$L259:
 4826              	$LM445:
 4827              		.stabn 68,0,112,$LM445
 4828 2e14 0A006294 		lhu	$2,10($3)
 4829 2e18 FFFF4424 		addu	$4,$2,-1
 4830 2e1c 0A0064A4 		sh	$4,10($3)
 4831              	$LM446:
 4832              		.stabn 68,0,114,$LM446
 4833 2e20 0000C48F 		lw	$4,0($fp)
 4834 2e24 2D108000 		move	$2,$4
 4835 2e28 01000010 		b	$L257
 4835      00000000 
 4836              	$LBE49:
 4837              	$LM447:
 4838              		.stabn 68,0,114,$LM447
 4839              	$L257:
 4840 2e30 2DE8C003 		move	$sp,$fp
 4841 2e34 1000BEDF 		ld	$fp,16($sp)
 4842 2e38 2000BD27 		addu	$sp,$sp,32
 4843 2e3c 0800E003 		j	$31
 4843      00000000 
 4844              		.end	pop__t10fifo_queue1ZUi
 4845              	$LFE25:
 4846              	.stabs "pop__t10fifo_queue1ZUi:F42",36,0,101,pop__t10fifo_queue1ZUi
 4847              	.stabs "this:P240",64,0,101,3
 4848              	.stabs "ret:42",128,0,102,-32
 4849              	.stabn 192,0,0,$LBB49
 4850              	.stabn 224,0,0,$LBE49
 4851              	$Lscope24:
 4852              	.stabs "",36,0,0,$Lscope24-pop__t10fifo_queue1ZUi
 4853 2e44 00000000 		.p2align 3
 4854              		.weak	find__t10fifo_queue1ZUiRCUis
 4855              	$LFB26:
 4856              	$LM448:
 4857              		.stabn 68,0,126,$LM448
 4858              	.stabs "../ps2/fifo_queue.cpp",132,0,0,$Ltext0
 4859              		.ent	find__t10fifo_queue1ZUiRCUis
 4860              	find__t10fifo_queue1ZUiRCUis:
 4861              		.frame	$fp,64,$31		# vars= 16, regs= 6/0, args= 0, extra= 0
 4862              		.mask	0xc0010000,-16
 4863              		.fmask	0x00000000,0
 4864 2e48 C0FFBD27 		subu	$sp,$sp,64
 4865              	$LCFI99:
 4866 2e4c 3000BFFF 		sd	$31,48($sp)
 4867              	$LCFI100:
GAS LISTING C:\DOCUME~1\Schmidt\LOCALS~1\Temp\ccKmaaaa.s 			page 99


 4868 2e50 2000BEFF 		sd	$fp,32($sp)
 4869              	$LCFI101:
 4870 2e54 1000B0FF 		sd	$16,16($sp)
 4871              	$LCFI102:
 4872 2e58 2DF0A003 		move	$fp,$sp
 4873              	$LCFI103:
 4874 2e5c 2D808000 		move	$16,$4
 4875 2e60 0000C5AF 		sw	$5,0($fp)
 4876 2e64 2D10C000 		move	$2,$6
 4877 2e68 0400C2A7 		sh	$2,4($fp)
 4878              	$LM449:
 4879              		.stabn 68,0,126,$LM449
 4880              	$LBB50:
 4881              	$LM450:
 4882              		.stabn 68,0,127,$LM450
 4883 2e6c 06000296 		lhu	$2,6($16)
 4884 2e70 0600C2A7 		sh	$2,6($fp)
 4885              	$LM451:
 4886              		.stabn 68,0,129,$LM451
 4887 2e74 0A000286 		lh	$2,10($16)
 4888 2e78 0400401C 		bgtz	$2,$L254
 4888      00000000 
 4889              	$LM452:
 4890              		.stabn 68,0,130,$LM452
 4891 2e80 2D100000 		move	$2,$0
 4892 2e84 52000010 		b	$L253
 4892      00000000 
 4893              		.p2align 2
 4894              	$L254:
 4895              	$LM453:
 4896              		.stabn 68,0,131,$LM453
 4897 2e8c 0600C287 		lh	$2,6($fp)
 4898 2e90 2D184000 		move	$3,$2
 4899 2e94 80100300 		sll	$2,$3,2
 4900 2e98 0000038E 		lw	$3,0($16)
 4901 2e9c 21104300 		addu	$2,$2,$3
 4902 2ea0 0000C38F 		lw	$3,0($fp)
 4903 2ea4 0000428C 		lw	$2,0($2)
 4904 2ea8 0000638C 		lw	$3,0($3)
 4905 2eac 0A004314 		bne	$2,$3,$L255
 4905      00000000 
 4906              	$LM454:
 4907              		.stabn 68,0,133,$LM454
 4908 2eb4 0400C287 		lh	$2,4($fp)
 4909 2eb8 04004010 		beq	$2,$0,$L256
 4909      00000000 
 4910              	$LM455:
 4911              		.stabn 68,0,135,$LM455
 4912 2ec0 2D200002 		move	$4,$16
 4913 2ec4 0000000C 		jal	pop__t10fifo_queue1ZUi
 4913      00000000 
 4914              	$L256:
 4915              	$LM456:
 4916              		.stabn 68,0,137,$LM456
 4917 2ecc 01000224 		li	$2,1			# 0x1
 4918 2ed0 3F000010 		b	$L253
 4918      00000000 
GAS LISTING C:\DOCUME~1\Schmidt\LOCALS~1\Temp\ccKmaaaa.s 			page 100


 4919              		.p2align 2
 4920              	$L255:
 4921              		.set	noreorder
 4922 2ed8 00000000 		nop
 4923              		.set	reorder
 4924              	$LM457:
 4925              		.stabn 68,0,139,$LM457
 4926 2edc 00000000 		.p2align 3
 4927              	$L260:
 4928 2ee0 0600C287 		lh	$2,6($fp)
 4929 2ee4 08000386 		lh	$3,8($16)
 4930 2ee8 03004314 		bne	$2,$3,$L262
 4930      00000000 
 4931 2ef0 34000010 		b	$L261
 4931      00000000 
 4932              		.p2align 2
 4933              	$L262:
 4934              	$LM458:
 4935              		.stabn 68,0,141,$LM458
 4936 2ef8 0600C297 		lhu	$2,6($fp)
 4937 2efc 01004324 		addu	$3,$2,1
 4938 2f00 0600C3A7 		sh	$3,6($fp)
 4939              	$LM459:
 4940              		.stabn 68,0,142,$LM459
 4941 2f04 0600C287 		lh	$2,6($fp)
 4942 2f08 04000386 		lh	$3,4($16)
 4943 2f0c 2A104300 		slt	$2,$2,$3
 4944 2f10 02004014 		bne	$2,$0,$L263
 4944      00000000 
 4945              	$LM460:
 4946              		.stabn 68,0,143,$LM460
 4947 2f18 0600C0A7 		sh	$0,6($fp)
 4948              	$L263:
 4949              	$LM461:
 4950              		.stabn 68,0,144,$LM461
 4951 2f1c 0600C287 		lh	$2,6($fp)
 4952 2f20 2D184000 		move	$3,$2
 4953 2f24 80100300 		sll	$2,$3,2
 4954 2f28 0000038E 		lw	$3,0($16)
 4955 2f2c 21104300 		addu	$2,$2,$3
 4956 2f30 0000C38F 		lw	$3,0($fp)
 4957 2f34 0000428C 		lw	$2,0($2)
 4958 2f38 0000638C 		lw	$3,0($3)
 4959 2f3c 1F004314 		bne	$2,$3,$L264
 4959      00000000 
 4960              	$LM462:
 4961              		.stabn 68,0,146,$LM462
 4962 2f44 0400C287 		lh	$2,4($fp)
 4963 2f48 19004010 		beq	$2,$0,$L265
 4963      00000000 
 4964              	$LM463:
 4965              		.stabn 68,0,148,$LM463
 4966 2f50 0600C287 		lh	$2,6($fp)
 4967 2f54 2D184000 		move	$3,$2
 4968 2f58 80100300 		sll	$2,$3,2
 4969 2f5c 0000038E 		lw	$3,0($16)
 4970 2f60 21104300 		addu	$2,$2,$3
GAS LISTING C:\DOCUME~1\Schmidt\LOCALS~1\Temp\ccKmaaaa.s 			page 101


 4971 2f64 08000386 		lh	$3,8($16)
 4972 2f68 2D206000 		move	$4,$3
 4973 2f6c 80180400 		sll	$3,$4,2
 4974 2f70 0000048E 		lw	$4,0($16)
 4975 2f74 21186400 		addu	$3,$3,$4
 4976 2f78 0000648C 		lw	$4,0($3)
 4977 2f7c 000044AC 		sw	$4,0($2)
 4978              	$LM464:
 4979              		.stabn 68,0,149,$LM464
 4980 2f80 0A000296 		lhu	$2,10($16)
 4981 2f84 FFFF4324 		addu	$3,$2,-1
 4982 2f88 0A0003A6 		sh	$3,10($16)
 4983              	$LM465:
 4984              		.stabn 68,0,150,$LM465
 4985 2f8c 08000296 		lhu	$2,8($16)
 4986 2f90 FFFF4324 		addu	$3,$2,-1
 4987 2f94 080003A6 		sh	$3,8($16)
 4988              	$LM466:
 4989              		.stabn 68,0,151,$LM466
 4990 2f98 08000286 		lh	$2,8($16)
 4991 2f9c 04004104 		bgez	$2,$L265
 4991      00000000 
 4992              	$LM467:
 4993              		.stabn 68,0,152,$LM467
 4994 2fa4 04000296 		lhu	$2,4($16)
 4995 2fa8 FFFF4324 		addu	$3,$2,-1
 4996 2fac 080003A6 		sh	$3,8($16)
 4997              	$L266:
 4998              	$L265:
 4999              	$LM468:
 5000              		.stabn 68,0,154,$LM468
 5001 2fb0 01000224 		li	$2,1			# 0x1
 5002 2fb4 06000010 		b	$L253
 5002      00000000 
 5003              		.p2align 2
 5004              	$L264:
 5005 2fbc C8FF0010 		b	$L260
 5005      00000000 
 5006              		.p2align 2
 5007              	$L261:
 5008              	$LM469:
 5009              		.stabn 68,0,157,$LM469
 5010 2fc4 2D100000 		move	$2,$0
 5011 2fc8 01000010 		b	$L253
 5011      00000000 
 5012              	$LBE50:
 5013              	$LM470:
 5014              		.stabn 68,0,157,$LM470
 5015              	$L253:
 5016 2fd0 2DE8C003 		move	$sp,$fp
 5017 2fd4 3000BFDF 		ld	$31,48($sp)
 5018 2fd8 2000BEDF 		ld	$fp,32($sp)
 5019 2fdc 1000B0DF 		ld	$16,16($sp)
 5020 2fe0 4000BD27 		addu	$sp,$sp,64
 5021 2fe4 0800E003 		j	$31
 5021      00000000 
 5022              		.end	find__t10fifo_queue1ZUiRCUis
GAS LISTING C:\DOCUME~1\Schmidt\LOCALS~1\Temp\ccKmaaaa.s 			page 102


 5023              	$LFE26:
 5024              	.stabs "find__t10fifo_queue1ZUiRCUis:F8",36,0,126,find__t10fifo_queue1ZUiRCUis
 5025              	.stabs "this:P240",64,0,126,16
 5026              	.stabs "index_to_find:p292",160,0,126,-64
 5027              	.stabs "remove_flag:p8",160,0,126,-60
 5028              	.stabs "curr:8",128,0,127,-58
 5029              	.stabn 192,0,0,$LBB50
 5030              	.stabn 224,0,0,$LBE50
 5031              	$Lscope25:
 5032              	.stabs "",36,0,0,$Lscope25-find__t10fifo_queue1ZUiRCUis
 5033 2fec 00000000 		.p2align 3
 5034              		.weak	_nslInitialized__Fv
 5035              	$LFB27:
 5036              	.stabs "../ps2/nsl_ps2.h",132,0,0,$Ltext2
 5037              	$Ltext2:
 5038              	$LM471:
 5039              		.stabn 68,0,309,$LM471
 5040              	.stabs "../ps2/nsl_ps2.h",132,0,0,$Ltext0
 5041              		.ent	_nslInitialized__Fv
 5042              	_nslInitialized__Fv:
 5043              		.frame	$fp,32,$31		# vars= 0, regs= 4/0, args= 0, extra= 0
 5044              		.mask	0xc0000000,-16
 5045              		.fmask	0x00000000,0
 5046 2ff0 E0FFBD27 		subu	$sp,$sp,32
 5047              	$LCFI104:
 5048 2ff4 1000BFFF 		sd	$31,16($sp)
 5049              	$LCFI105:
 5050 2ff8 0000BEFF 		sd	$fp,0($sp)
 5051              	$LCFI106:
 5052 2ffc 2DF0A003 		move	$fp,$sp
 5053              	$LCFI107:
 5054              	$LM472:
 5055              		.stabn 68,0,309,$LM472
 5056              	$LBB51:
 5057              	$LM473:
 5058              		.stabn 68,0,310,$LM473
 5059 3000 0100023C 		lw	$2,nsl+61516
 5059      4CF0428C 
 5060 3008 01000324 		li	$3,1			# 0x1
 5061 300c 05004310 		beq	$2,$3,$L18
 5061      00000000 
 5062              	$LM474:
 5063              		.stabn 68,0,311,$LM474
 5064 3014 0000043C 		la	$4,$LC6
 5064      F8008424 
 5065 301c 0000000C 		jal	nslFatal__FPCce
 5065      00000000 
 5066              	$L18:
 5067              	$LBE51:
 5068              	$LM475:
 5069              		.stabn 68,0,312,$LM475
 5070              	$L17:
 5071 3024 2DE8C003 		move	$sp,$fp
 5072 3028 1000BFDF 		ld	$31,16($sp)
 5073 302c 0000BEDF 		ld	$fp,0($sp)
 5074 3030 2000BD27 		addu	$sp,$sp,32
 5075 3034 0800E003 		j	$31
GAS LISTING C:\DOCUME~1\Schmidt\LOCALS~1\Temp\ccKmaaaa.s 			page 103


 5075      00000000 
 5076              		.end	_nslInitialized__Fv
 5077              	$LFE27:
 5078              	.stabs "_nslInitialized__Fv:F22",36,0,309,_nslInitialized__Fv
 5079              	.stabn 192,0,0,$LBB51
 5080              	.stabn 224,0,0,$LBE51
 5081              	$Lscope26:
 5082              	.stabs "",36,0,0,$Lscope26-_nslInitialized__Fv
 5083 303c 00000000 		.p2align 3
 5084              		.weak	_nslCheckSourceIdValidity__FUi
 5085              	$LFB28:
 5086              	$LM476:
 5087              		.stabn 68,0,280,$LM476
 5088              	.stabs "../ps2/nsl_ps2.h",132,0,0,$Ltext0
 5089              		.ent	_nslCheckSourceIdValidity__FUi
 5090              	_nslCheckSourceIdValidity__FUi:
 5091              		.frame	$fp,64,$31		# vars= 16, regs= 6/0, args= 0, extra= 0
 5092              		.mask	0xc0010000,-16
 5093              		.fmask	0x00000000,0
 5094 3040 C0FFBD27 		subu	$sp,$sp,64
 5095              	$LCFI108:
 5096 3044 3000BFFF 		sd	$31,48($sp)
 5097              	$LCFI109:
 5098 3048 2000BEFF 		sd	$fp,32($sp)
 5099              	$LCFI110:
 5100 304c 1000B0FF 		sd	$16,16($sp)
 5101              	$LCFI111:
 5102 3050 2DF0A003 		move	$fp,$sp
 5103              	$LCFI112:
 5104 3054 2D808000 		move	$16,$4
 5105              	$LM477:
 5106              		.stabn 68,0,280,$LM477
 5107              	$LBB52:
 5108              	$LM478:
 5109              		.stabn 68,0,283,$LM478
 5110 3058 FF030232 		andi	$2,$16,0x3ff
 5111 305c 0000C2AF 		sw	$2,0($fp)
 5112              	$LM479:
 5113              		.stabn 68,0,284,$LM479
 5114 3060 FFFF023C 		li	$2,4294901760			# 0xffff0000
 5115 3064 00FC4234 		ori	$2,$2,0xfc00
 5116 3068 24180202 		and	$3,$16,$2
 5117 306c 0400C3AF 		sw	$3,4($fp)
 5118              	$LM480:
 5119              		.stabn 68,0,285,$LM480
 5120 3070 FF030232 		andi	$2,$16,0x3ff
 5121 3074 58000324 		li	$3,88			# 0x58
 5122 3078 18104300 		mult	$2,$2,$3
 5123 307c 0000033C 		la	$3,nsl+132
 5123      84006324 
 5124 3084 21106200 		addu	$2,$3,$2
 5125 3088 0000438C 		lw	$3,0($2)
 5126 308c 0800C3AF 		sw	$3,8($fp)
 5127              	$LM481:
 5128              		.stabn 68,0,286,$LM481
 5129 3090 FFFF023C 		li	$2,4294901760			# 0xffff0000
 5130 3094 FFFF4234 		ori	$2,$2,0xffff
GAS LISTING C:\DOCUME~1\Schmidt\LOCALS~1\Temp\ccKmaaaa.s 			page 104


 5131 3098 0C00C2AF 		sw	$2,12($fp)
 5132              	$LM482:
 5133              		.stabn 68,0,287,$LM482
 5134 309c 05000016 		bne	$16,$0,$L12
 5134      00000000 
 5135              	$LM483:
 5136              		.stabn 68,0,289,$LM483
 5137 30a4 0000043C 		la	$4,$LC1
 5137      18008424 
 5138 30ac 0000000C 		jal	nslFatal__FPCce
 5138      00000000 
 5139              	$L12:
 5140              	$LM484:
 5141              		.stabn 68,0,291,$LM484
 5142 30b4 0800C28F 		lw	$2,8($fp)
 5143 30b8 0C00C38F 		lw	$3,12($fp)
 5144 30bc 05004314 		bne	$2,$3,$L13
 5144      00000000 
 5145              	$LM485:
 5146              		.stabn 68,0,293,$LM485
 5147 30c4 0000043C 		la	$4,$LC2
 5147      40008424 
 5148 30cc 0000000C 		jal	nslFatal__FPCce
 5148      00000000 
 5149              	$L13:
 5150              	$LM486:
 5151              		.stabn 68,0,295,$LM486
 5152 30d4 0000C28F 		lw	$2,0($fp)
 5153 30d8 0001432C 		sltu	$3,$2,256
 5154 30dc 05006014 		bne	$3,$0,$L14
 5154      00000000 
 5155              	$LM487:
 5156              		.stabn 68,0,297,$LM487
 5157 30e4 0000043C 		la	$4,$LC3
 5157      60008424 
 5158 30ec 0000000C 		jal	nslFatal__FPCce
 5158      00000000 
 5159              	$L14:
 5160              	$LM488:
 5161              		.stabn 68,0,299,$LM488
 5162 30f4 0000C28F 		lw	$2,0($fp)
 5163 30f8 58000324 		li	$3,88			# 0x58
 5164 30fc 18104300 		mult	$2,$2,$3
 5165 3100 0000033C 		la	$3,nsl+120
 5165      78006324 
 5166 3108 21106200 		addu	$2,$3,$2
 5167 310c 0000438C 		lw	$3,0($2)
 5168 3110 05000312 		beq	$16,$3,$L15
 5168      00000000 
 5169              	$LM489:
 5170              		.stabn 68,0,301,$LM489
 5171 3118 0000043C 		la	$4,$LC4
 5171      90008424 
 5172 3120 0000000C 		jal	nslFatal__FPCce
 5172      00000000 
 5173              	$L15:
 5174              	$LM490:
GAS LISTING C:\DOCUME~1\Schmidt\LOCALS~1\Temp\ccKmaaaa.s 			page 105


 5175              		.stabn 68,0,303,$LM490
 5176 3128 0400C28F 		lw	$2,4($fp)
 5177 312c 05004014 		bne	$2,$0,$L16
 5177      00000000 
 5178              	$LM491:
 5179              		.stabn 68,0,305,$LM491
 5180 3134 0000043C 		la	$4,$LC5
 5180      D0008424 
 5181 313c 0000000C 		jal	nslFatal__FPCce
 5181      00000000 
 5182              	$L16:
 5183              	$LM492:
 5184              		.stabn 68,0,307,$LM492
 5185 3144 01000010 		b	$L11
 5185      00000000 
 5186              	$LBE52:
 5187              	$LM493:
 5188              		.stabn 68,0,308,$LM493
 5189              	$L11:
 5190 314c 2DE8C003 		move	$sp,$fp
 5191 3150 3000BFDF 		ld	$31,48($sp)
 5192 3154 2000BEDF 		ld	$fp,32($sp)
 5193 3158 1000B0DF 		ld	$16,16($sp)
 5194 315c 4000BD27 		addu	$sp,$sp,64
 5195 3160 0800E003 		j	$31
 5195      00000000 
 5196              		.end	_nslCheckSourceIdValidity__FUi
 5197              	$LFE28:
 5198              	.stabs "_nslCheckSourceIdValidity__FUi:F22",36,0,280,_nslCheckSourceIdValidity__FUi
 5199              	.stabs "checkId:P41",64,0,280,16
 5200              	.stabs "checkSlot:41",128,0,283,-64
 5201              	.stabs "upCheckId:41",128,0,284,-60
 5202              	.stabs "gasId:29",128,0,285,-56
 5203              	.stabs "negativeOne:29",128,0,286,-52
 5204              	.stabn 192,0,0,$LBB52
 5205              	.stabn 224,0,0,$LBE52
 5206              	$Lscope27:
 5207              	.stabs "",36,0,0,$Lscope27-_nslCheckSourceIdValidity__FUi
 5208              		.p2align 3
 5209              		.weak	_nslCheckSoundIdValidity__FUi
 5210              	$LFB29:
 5211              	$LM494:
 5212              		.stabn 68,0,261,$LM494
 5213              	.stabs "../ps2/nsl_ps2.h",132,0,0,$Ltext0
 5214              		.ent	_nslCheckSoundIdValidity__FUi
 5215              	_nslCheckSoundIdValidity__FUi:
 5216              		.frame	$fp,64,$31		# vars= 16, regs= 6/0, args= 0, extra= 0
 5217              		.mask	0xc0010000,-16
 5218              		.fmask	0x00000000,0
 5219 3168 C0FFBD27 		subu	$sp,$sp,64
 5220              	$LCFI113:
 5221 316c 3000BFFF 		sd	$31,48($sp)
 5222              	$LCFI114:
 5223 3170 2000BEFF 		sd	$fp,32($sp)
 5224              	$LCFI115:
 5225 3174 1000B0FF 		sd	$16,16($sp)
 5226              	$LCFI116:
GAS LISTING C:\DOCUME~1\Schmidt\LOCALS~1\Temp\ccKmaaaa.s 			page 106


 5227 3178 2DF0A003 		move	$fp,$sp
 5228              	$LCFI117:
 5229 317c 2D808000 		move	$16,$4
 5230              	$LM495:
 5231              		.stabn 68,0,261,$LM495
 5232              	$LBB53:
 5233              	$LM496:
 5234              		.stabn 68,0,264,$LM496
 5235 3180 FF030232 		andi	$2,$16,0x3ff
 5236 3184 0000C2AF 		sw	$2,0($fp)
 5237              	$LM497:
 5238              		.stabn 68,0,265,$LM497
 5239 3188 FFFF023C 		li	$2,4294901760			# 0xffff0000
 5240 318c 00FC4234 		ori	$2,$2,0xfc00
 5241 3190 24180202 		and	$3,$16,$2
 5242 3194 0400C3AF 		sw	$3,4($fp)
 5243              	$LM498:
 5244              		.stabn 68,0,266,$LM498
 5245 3198 06000016 		bne	$16,$0,$L6
 5245      00000000 
 5246              	$LM499:
 5247              		.stabn 68,0,267,$LM499
 5248 31a0 0000043C 		la	$4,$LC0
 5248      00008424 
 5249 31a8 2D280002 		move	$5,$16
 5250 31ac 0000000C 		jal	nslFatal__FPCce
 5250      00000000 
 5251              	$L6:
 5252              	$LM500:
 5253              		.stabn 68,0,268,$LM500
 5254 31b4 0000C28F 		lw	$2,0($fp)
 5255 31b8 58000324 		li	$3,88			# 0x58
 5256 31bc 18104300 		mult	$2,$2,$3
 5257 31c0 0000033C 		la	$3,nsl+22596
 5257      44586324 
 5258 31c8 21106200 		addu	$2,$3,$2
 5259 31cc 0000438C 		lw	$3,0($2)
 5260 31d0 06006014 		bne	$3,$0,$L7
 5260      00000000 
 5261              	$LM501:
 5262              		.stabn 68,0,269,$LM501
 5263 31d8 0000043C 		la	$4,$LC0
 5263      00008424 
 5264 31e0 2D280002 		move	$5,$16
 5265 31e4 0000000C 		jal	nslFatal__FPCce
 5265      00000000 
 5266              	$L7:
 5267              	$LM502:
 5268              		.stabn 68,0,270,$LM502
 5269 31ec 0000C28F 		lw	$2,0($fp)
 5270 31f0 0001432C 		sltu	$3,$2,256
 5271 31f4 06006014 		bne	$3,$0,$L8
 5271      00000000 
 5272              	$LM503:
 5273              		.stabn 68,0,271,$LM503
 5274 31fc 0000043C 		la	$4,$LC0
 5274      00008424 
GAS LISTING C:\DOCUME~1\Schmidt\LOCALS~1\Temp\ccKmaaaa.s 			page 107


 5275 3204 2D280002 		move	$5,$16
 5276 3208 0000000C 		jal	nslFatal__FPCce
 5276      00000000 
 5277              	$L8:
 5278              	$LM504:
 5279              		.stabn 68,0,272,$LM504
 5280 3210 0000C28F 		lw	$2,0($fp)
 5281 3214 58000324 		li	$3,88			# 0x58
 5282 3218 18104300 		mult	$2,$2,$3
 5283 321c 0000033C 		la	$3,nsl+22644
 5283      74586324 
 5284 3224 21106200 		addu	$2,$3,$2
 5285 3228 0000438C 		lw	$3,0($2)
 5286 322c 06000312 		beq	$16,$3,$L9
 5286      00000000 
 5287              	$LM505:
 5288              		.stabn 68,0,273,$LM505
 5289 3234 0000043C 		la	$4,$LC0
 5289      00008424 
 5290 323c 2D280002 		move	$5,$16
 5291 3240 0000000C 		jal	nslFatal__FPCce
 5291      00000000 
 5292              	$L9:
 5293              	$LM506:
 5294              		.stabn 68,0,274,$LM506
 5295 3248 0400C28F 		lw	$2,4($fp)
 5296 324c 06004014 		bne	$2,$0,$L10
 5296      00000000 
 5297              	$LM507:
 5298              		.stabn 68,0,275,$LM507
 5299 3254 0000043C 		la	$4,$LC0
 5299      00008424 
 5300 325c 2D280002 		move	$5,$16
 5301 3260 0000000C 		jal	nslFatal__FPCce
 5301      00000000 
 5302              	$L10:
 5303              	$LBE53:
 5304              	$LM508:
 5305              		.stabn 68,0,277,$LM508
 5306              	$L5:
 5307 3268 2DE8C003 		move	$sp,$fp
 5308 326c 3000BFDF 		ld	$31,48($sp)
 5309 3270 2000BEDF 		ld	$fp,32($sp)
 5310 3274 1000B0DF 		ld	$16,16($sp)
 5311 3278 4000BD27 		addu	$sp,$sp,64
 5312 327c 0800E003 		j	$31
 5312      00000000 
 5313              		.end	_nslCheckSoundIdValidity__FUi
 5314              	$LFE29:
 5315              	.stabs "_nslCheckSoundIdValidity__FUi:F22",36,0,261,_nslCheckSoundIdValidity__FUi
 5316              	.stabs "checkId:P42",64,0,261,16
 5317              	.stabs "checkSlot:42",128,0,264,-64
 5318              	.stabs "upCheckId:42",128,0,265,-60
 5319              	.stabn 192,0,0,$LBB53
 5320              	.stabn 224,0,0,$LBE53
 5321              	$Lscope28:
 5322              	.stabs "",36,0,0,$Lscope28-_nslCheckSoundIdValidity__FUi
GAS LISTING C:\DOCUME~1\Schmidt\LOCALS~1\Temp\ccKmaaaa.s 			page 108


 5323              		.rdata
 5324              	.stabs "NSL_PS2_SMALL_STRING_LENGTH:S29",38,0,15,NSL_PS2_SMALL_STRING_LENGTH
 5325              		.align	2
 5326              		.type	 NSL_PS2_SMALL_STRING_LENGTH,@object
 5327              		.size	 NSL_PS2_SMALL_STRING_LENGTH,4
 5328              	NSL_PS2_SMALL_STRING_LENGTH:
 5329 02f8 FF000000 		.word	255
 5330              	
 5331              		.data
 5332              		.align	2
 5333              		.globl	_GLOBAL_$F$nslAddSound__FUi
 5334              	_GLOBAL_$F$nslAddSound__FUi:
 5335              	__FRAME_BEGIN__:
 5336 05a0 10000000 		.4byte	$LECIE1-$LSCIE1
 5337              	$LSCIE1:
 5338 05a4 00000000 		.4byte	0x0
 5339 05a8 01       		.byte	0x1
 5340 05a9 00       		.byte	0x0
 5341 05aa 01       		.byte	0x1
 5342 05ab 78       		.byte	0x78
 5343 05ac 40       		.byte	0x40
 5344 05ad 0C       		.byte	0xc
 5345 05ae 1D       		.byte	0x1d
 5346 05af 00       		.byte	0x0
 5347 05b0 09       		.byte	0x9
 5348 05b1 40       		.byte	0x40
 5349 05b2 1F       		.byte	0x1f
 5350 05b3 00       		.align	2
 5351              	$LECIE1:
 5352 05b4 2C000000 		.4byte	$LEFDE1-$LSFDE1
 5353              	$LSFDE1:
 5354 05b8 18000000 		.4byte	$LSFDE1-__FRAME_BEGIN__
 5355 05bc 00000000 		.4byte	$LFB1
 5356 05c0 84030000 		.4byte	$LFE1-$LFB1
 5357 05c4 04       		.byte	0x4
 5358 05c5 04000000 		.4byte	$LCFI0-$LFB1
 5359 05c9 0E       		.byte	0xe
 5360 05ca 30       		.byte	0x30
 5361 05cb 04       		.byte	0x4
 5362 05cc 04000000 		.4byte	$LCFI1-$LCFI0
 5363 05d0 05       		.byte	0x5
 5364 05d1 40       		.byte	0x40
 5365 05d2 02       		.byte	0x2
 5366 05d3 04       		.byte	0x4
 5367 05d4 04000000 		.4byte	$LCFI2-$LCFI1
 5368 05d8 9E       		.byte	0x9e
 5369 05d9 04       		.byte	0x4
 5370 05da 04       		.byte	0x4
 5371 05db 04000000 		.4byte	$LCFI3-$LCFI2
 5372 05df 0C       		.byte	0xc
 5373 05e0 1E       		.byte	0x1e
 5374 05e1 30       		.byte	0x30
 5375 05e2 0000     		.align	2
 5376              	$LEFDE1:
 5377 05e4 2C000000 		.4byte	$LEFDE3-$LSFDE3
 5378              	$LSFDE3:
 5379 05e8 48000000 		.4byte	$LSFDE3-__FRAME_BEGIN__
GAS LISTING C:\DOCUME~1\Schmidt\LOCALS~1\Temp\ccKmaaaa.s 			page 109


 5380 05ec 88030000 		.4byte	$LFB2
 5381 05f0 24070000 		.4byte	$LFE2-$LFB2
 5382 05f4 04       		.byte	0x4
 5383 05f5 04000000 		.4byte	$LCFI4-$LFB2
 5384 05f9 0E       		.byte	0xe
 5385 05fa 40       		.byte	0x40
 5386 05fb 04       		.byte	0x4
 5387 05fc 04000000 		.4byte	$LCFI5-$LCFI4
 5388 0600 05       		.byte	0x5
 5389 0601 40       		.byte	0x40
 5390 0602 02       		.byte	0x2
 5391 0603 04       		.byte	0x4
 5392 0604 04000000 		.4byte	$LCFI6-$LCFI5
 5393 0608 9E       		.byte	0x9e
 5394 0609 04       		.byte	0x4
 5395 060a 04       		.byte	0x4
 5396 060b 04000000 		.4byte	$LCFI7-$LCFI6
 5397 060f 0C       		.byte	0xc
 5398 0610 1E       		.byte	0x1e
 5399 0611 40       		.byte	0x40
 5400 0612 0000     		.align	2
 5401              	$LEFDE3:
 5402 0614 2C000000 		.4byte	$LEFDE5-$LSFDE5
 5403              	$LSFDE5:
 5404 0618 78000000 		.4byte	$LSFDE5-__FRAME_BEGIN__
 5405 061c B00A0000 		.4byte	$LFB3
 5406 0620 A4000000 		.4byte	$LFE3-$LFB3
 5407 0624 04       		.byte	0x4
 5408 0625 04000000 		.4byte	$LCFI8-$LFB3
 5409 0629 0E       		.byte	0xe
 5410 062a 30       		.byte	0x30
 5411 062b 04       		.byte	0x4
 5412 062c 04000000 		.4byte	$LCFI9-$LCFI8
 5413 0630 05       		.byte	0x5
 5414 0631 40       		.byte	0x40
 5415 0632 02       		.byte	0x2
 5416 0633 04       		.byte	0x4
 5417 0634 04000000 		.4byte	$LCFI10-$LCFI9
 5418 0638 9E       		.byte	0x9e
 5419 0639 04       		.byte	0x4
 5420 063a 04       		.byte	0x4
 5421 063b 04000000 		.4byte	$LCFI11-$LCFI10
 5422 063f 0C       		.byte	0xc
 5423 0640 1E       		.byte	0x1e
 5424 0641 30       		.byte	0x30
 5425 0642 0000     		.align	2
 5426              	$LEFDE5:
 5427 0644 2C000000 		.4byte	$LEFDE7-$LSFDE7
 5428              	$LSFDE7:
 5429 0648 A8000000 		.4byte	$LSFDE7-__FRAME_BEGIN__
 5430 064c 580B0000 		.4byte	$LFB4
 5431 0650 DC010000 		.4byte	$LFE4-$LFB4
 5432 0654 04       		.byte	0x4
 5433 0655 04000000 		.4byte	$LCFI12-$LFB4
 5434 0659 0E       		.byte	0xe
 5435 065a 30       		.byte	0x30
 5436 065b 04       		.byte	0x4
GAS LISTING C:\DOCUME~1\Schmidt\LOCALS~1\Temp\ccKmaaaa.s 			page 110


 5437 065c 04000000 		.4byte	$LCFI13-$LCFI12
 5438 0660 05       		.byte	0x5
 5439 0661 40       		.byte	0x40
 5440 0662 02       		.byte	0x2
 5441 0663 04       		.byte	0x4
 5442 0664 04000000 		.4byte	$LCFI14-$LCFI13
 5443 0668 9E       		.byte	0x9e
 5444 0669 04       		.byte	0x4
 5445 066a 04       		.byte	0x4
 5446 066b 04000000 		.4byte	$LCFI15-$LCFI14
 5447 066f 0C       		.byte	0xc
 5448 0670 1E       		.byte	0x1e
 5449 0671 30       		.byte	0x30
 5450 0672 0000     		.align	2
 5451              	$LEFDE7:
 5452 0674 2C000000 		.4byte	$LEFDE9-$LSFDE9
 5453              	$LSFDE9:
 5454 0678 D8000000 		.4byte	$LSFDE9-__FRAME_BEGIN__
 5455 067c 380D0000 		.4byte	$LFB5
 5456 0680 D4000000 		.4byte	$LFE5-$LFB5
 5457 0684 04       		.byte	0x4
 5458 0685 04000000 		.4byte	$LCFI16-$LFB5
 5459 0689 0E       		.byte	0xe
 5460 068a 30       		.byte	0x30
 5461 068b 04       		.byte	0x4
 5462 068c 04000000 		.4byte	$LCFI17-$LCFI16
 5463 0690 05       		.byte	0x5
 5464 0691 40       		.byte	0x40
 5465 0692 02       		.byte	0x2
 5466 0693 04       		.byte	0x4
 5467 0694 04000000 		.4byte	$LCFI18-$LCFI17
 5468 0698 9E       		.byte	0x9e
 5469 0699 04       		.byte	0x4
 5470 069a 04       		.byte	0x4
 5471 069b 04000000 		.4byte	$LCFI19-$LCFI18
 5472 069f 0C       		.byte	0xc
 5473 06a0 1E       		.byte	0x1e
 5474 06a1 30       		.byte	0x30
 5475 06a2 0000     		.align	2
 5476              	$LEFDE9:
 5477 06a4 2C000000 		.4byte	$LEFDE11-$LSFDE11
 5478              	$LSFDE11:
 5479 06a8 08010000 		.4byte	$LSFDE11-__FRAME_BEGIN__
 5480 06ac 100E0000 		.4byte	$LFB6
 5481 06b0 C8000000 		.4byte	$LFE6-$LFB6
 5482 06b4 04       		.byte	0x4
 5483 06b5 04000000 		.4byte	$LCFI20-$LFB6
 5484 06b9 0E       		.byte	0xe
 5485 06ba 30       		.byte	0x30
 5486 06bb 04       		.byte	0x4
 5487 06bc 04000000 		.4byte	$LCFI21-$LCFI20
 5488 06c0 05       		.byte	0x5
 5489 06c1 40       		.byte	0x40
 5490 06c2 02       		.byte	0x2
 5491 06c3 04       		.byte	0x4
 5492 06c4 04000000 		.4byte	$LCFI22-$LCFI21
 5493 06c8 9E       		.byte	0x9e
GAS LISTING C:\DOCUME~1\Schmidt\LOCALS~1\Temp\ccKmaaaa.s 			page 111


 5494 06c9 04       		.byte	0x4
 5495 06ca 04       		.byte	0x4
 5496 06cb 04000000 		.4byte	$LCFI23-$LCFI22
 5497 06cf 0C       		.byte	0xc
 5498 06d0 1E       		.byte	0x1e
 5499 06d1 30       		.byte	0x30
 5500 06d2 0000     		.align	2
 5501              	$LEFDE11:
 5502 06d4 2C000000 		.4byte	$LEFDE13-$LSFDE13
 5503              	$LSFDE13:
 5504 06d8 38010000 		.4byte	$LSFDE13-__FRAME_BEGIN__
 5505 06dc D80E0000 		.4byte	$LFB7
 5506 06e0 F0000000 		.4byte	$LFE7-$LFB7
 5507 06e4 04       		.byte	0x4
 5508 06e5 04000000 		.4byte	$LCFI24-$LFB7
 5509 06e9 0E       		.byte	0xe
 5510 06ea 30       		.byte	0x30
 5511 06eb 04       		.byte	0x4
 5512 06ec 04000000 		.4byte	$LCFI25-$LCFI24
 5513 06f0 05       		.byte	0x5
 5514 06f1 40       		.byte	0x40
 5515 06f2 02       		.byte	0x2
 5516 06f3 04       		.byte	0x4
 5517 06f4 04000000 		.4byte	$LCFI26-$LCFI25
 5518 06f8 9E       		.byte	0x9e
 5519 06f9 04       		.byte	0x4
 5520 06fa 04       		.byte	0x4
 5521 06fb 04000000 		.4byte	$LCFI27-$LCFI26
 5522 06ff 0C       		.byte	0xc
 5523 0700 1E       		.byte	0x1e
 5524 0701 30       		.byte	0x30
 5525 0702 0000     		.align	2
 5526              	$LEFDE13:
 5527 0704 2C000000 		.4byte	$LEFDE15-$LSFDE15
 5528              	$LSFDE15:
 5529 0708 68010000 		.4byte	$LSFDE15-__FRAME_BEGIN__
 5530 070c C80F0000 		.4byte	$LFB8
 5531 0710 F4000000 		.4byte	$LFE8-$LFB8
 5532 0714 04       		.byte	0x4
 5533 0715 04000000 		.4byte	$LCFI28-$LFB8
 5534 0719 0E       		.byte	0xe
 5535 071a 30       		.byte	0x30
 5536 071b 04       		.byte	0x4
 5537 071c 04000000 		.4byte	$LCFI29-$LCFI28
 5538 0720 05       		.byte	0x5
 5539 0721 40       		.byte	0x40
 5540 0722 02       		.byte	0x2
 5541 0723 04       		.byte	0x4
 5542 0724 04000000 		.4byte	$LCFI30-$LCFI29
 5543 0728 9E       		.byte	0x9e
 5544 0729 04       		.byte	0x4
 5545 072a 04       		.byte	0x4
 5546 072b 04000000 		.4byte	$LCFI31-$LCFI30
 5547 072f 0C       		.byte	0xc
 5548 0730 1E       		.byte	0x1e
 5549 0731 30       		.byte	0x30
 5550 0732 0000     		.align	2
GAS LISTING C:\DOCUME~1\Schmidt\LOCALS~1\Temp\ccKmaaaa.s 			page 112


 5551              	$LEFDE15:
 5552 0734 2C000000 		.4byte	$LEFDE17-$LSFDE17
 5553              	$LSFDE17:
 5554 0738 98010000 		.4byte	$LSFDE17-__FRAME_BEGIN__
 5555 073c C0100000 		.4byte	$LFB9
 5556 0740 04010000 		.4byte	$LFE9-$LFB9
 5557 0744 04       		.byte	0x4
 5558 0745 04000000 		.4byte	$LCFI32-$LFB9
 5559 0749 0E       		.byte	0xe
 5560 074a 30       		.byte	0x30
 5561 074b 04       		.byte	0x4
 5562 074c 04000000 		.4byte	$LCFI33-$LCFI32
 5563 0750 05       		.byte	0x5
 5564 0751 40       		.byte	0x40
 5565 0752 02       		.byte	0x2
 5566 0753 04       		.byte	0x4
 5567 0754 04000000 		.4byte	$LCFI34-$LCFI33
 5568 0758 9E       		.byte	0x9e
 5569 0759 04       		.byte	0x4
 5570 075a 04       		.byte	0x4
 5571 075b 04000000 		.4byte	$LCFI35-$LCFI34
 5572 075f 0C       		.byte	0xc
 5573 0760 1E       		.byte	0x1e
 5574 0761 30       		.byte	0x30
 5575 0762 0000     		.align	2
 5576              	$LEFDE17:
 5577 0764 2C000000 		.4byte	$LEFDE19-$LSFDE19
 5578              	$LSFDE19:
 5579 0768 C8010000 		.4byte	$LSFDE19-__FRAME_BEGIN__
 5580 076c C8110000 		.4byte	$LFB10
 5581 0770 28010000 		.4byte	$LFE10-$LFB10
 5582 0774 04       		.byte	0x4
 5583 0775 04000000 		.4byte	$LCFI36-$LFB10
 5584 0779 0E       		.byte	0xe
 5585 077a 30       		.byte	0x30
 5586 077b 04       		.byte	0x4
 5587 077c 04000000 		.4byte	$LCFI37-$LCFI36
 5588 0780 05       		.byte	0x5
 5589 0781 40       		.byte	0x40
 5590 0782 02       		.byte	0x2
 5591 0783 04       		.byte	0x4
 5592 0784 04000000 		.4byte	$LCFI38-$LCFI37
 5593 0788 9E       		.byte	0x9e
 5594 0789 04       		.byte	0x4
 5595 078a 04       		.byte	0x4
 5596 078b 04000000 		.4byte	$LCFI39-$LCFI38
 5597 078f 0C       		.byte	0xc
 5598 0790 1E       		.byte	0x1e
 5599 0791 30       		.byte	0x30
 5600 0792 0000     		.align	2
 5601              	$LEFDE19:
 5602 0794 2C000000 		.4byte	$LEFDE21-$LSFDE21
 5603              	$LSFDE21:
 5604 0798 F8010000 		.4byte	$LSFDE21-__FRAME_BEGIN__
 5605 079c F0120000 		.4byte	$LFB11
 5606 07a0 CC000000 		.4byte	$LFE11-$LFB11
 5607 07a4 04       		.byte	0x4
GAS LISTING C:\DOCUME~1\Schmidt\LOCALS~1\Temp\ccKmaaaa.s 			page 113


 5608 07a5 04000000 		.4byte	$LCFI40-$LFB11
 5609 07a9 0E       		.byte	0xe
 5610 07aa 30       		.byte	0x30
 5611 07ab 04       		.byte	0x4
 5612 07ac 04000000 		.4byte	$LCFI41-$LCFI40
 5613 07b0 05       		.byte	0x5
 5614 07b1 40       		.byte	0x40
 5615 07b2 02       		.byte	0x2
 5616 07b3 04       		.byte	0x4
 5617 07b4 04000000 		.4byte	$LCFI42-$LCFI41
 5618 07b8 9E       		.byte	0x9e
 5619 07b9 04       		.byte	0x4
 5620 07ba 04       		.byte	0x4
 5621 07bb 04000000 		.4byte	$LCFI43-$LCFI42
 5622 07bf 0C       		.byte	0xc
 5623 07c0 1E       		.byte	0x1e
 5624 07c1 30       		.byte	0x30
 5625 07c2 0000     		.align	2
 5626              	$LEFDE21:
 5627 07c4 2C000000 		.4byte	$LEFDE23-$LSFDE23
 5628              	$LSFDE23:
 5629 07c8 28020000 		.4byte	$LSFDE23-__FRAME_BEGIN__
 5630 07cc C0130000 		.4byte	$LFB12
 5631 07d0 AC000000 		.4byte	$LFE12-$LFB12
 5632 07d4 04       		.byte	0x4
 5633 07d5 04000000 		.4byte	$LCFI44-$LFB12
 5634 07d9 0E       		.byte	0xe
 5635 07da 30       		.byte	0x30
 5636 07db 04       		.byte	0x4
 5637 07dc 04000000 		.4byte	$LCFI45-$LCFI44
 5638 07e0 05       		.byte	0x5
 5639 07e1 40       		.byte	0x40
 5640 07e2 02       		.byte	0x2
 5641 07e3 04       		.byte	0x4
 5642 07e4 04000000 		.4byte	$LCFI46-$LCFI45
 5643 07e8 9E       		.byte	0x9e
 5644 07e9 04       		.byte	0x4
 5645 07ea 04       		.byte	0x4
 5646 07eb 04000000 		.4byte	$LCFI47-$LCFI46
 5647 07ef 0C       		.byte	0xc
 5648 07f0 1E       		.byte	0x1e
 5649 07f1 30       		.byte	0x30
 5650 07f2 0000     		.align	2
 5651              	$LEFDE23:
 5652 07f4 2C000000 		.4byte	$LEFDE25-$LSFDE25
 5653              	$LSFDE25:
 5654 07f8 58020000 		.4byte	$LSFDE25-__FRAME_BEGIN__
 5655 07fc 70140000 		.4byte	$LFB13
 5656 0800 38010000 		.4byte	$LFE13-$LFB13
 5657 0804 04       		.byte	0x4
 5658 0805 04000000 		.4byte	$LCFI48-$LFB13
 5659 0809 0E       		.byte	0xe
 5660 080a 30       		.byte	0x30
 5661 080b 04       		.byte	0x4
 5662 080c 04000000 		.4byte	$LCFI49-$LCFI48
 5663 0810 05       		.byte	0x5
 5664 0811 40       		.byte	0x40
GAS LISTING C:\DOCUME~1\Schmidt\LOCALS~1\Temp\ccKmaaaa.s 			page 114


 5665 0812 02       		.byte	0x2
 5666 0813 04       		.byte	0x4
 5667 0814 04000000 		.4byte	$LCFI50-$LCFI49
 5668 0818 9E       		.byte	0x9e
 5669 0819 04       		.byte	0x4
 5670 081a 04       		.byte	0x4
 5671 081b 04000000 		.4byte	$LCFI51-$LCFI50
 5672 081f 0C       		.byte	0xc
 5673 0820 1E       		.byte	0x1e
 5674 0821 30       		.byte	0x30
 5675 0822 0000     		.align	2
 5676              	$LEFDE25:
 5677 0824 2C000000 		.4byte	$LEFDE27-$LSFDE27
 5678              	$LSFDE27:
 5679 0828 88020000 		.4byte	$LSFDE27-__FRAME_BEGIN__
 5680 082c A8150000 		.4byte	$LFB14
 5681 0830 5C020000 		.4byte	$LFE14-$LFB14
 5682 0834 04       		.byte	0x4
 5683 0835 04000000 		.4byte	$LCFI52-$LFB14
 5684 0839 0E       		.byte	0xe
 5685 083a 30       		.byte	0x30
 5686 083b 04       		.byte	0x4
 5687 083c 04000000 		.4byte	$LCFI53-$LCFI52
 5688 0840 05       		.byte	0x5
 5689 0841 40       		.byte	0x40
 5690 0842 02       		.byte	0x2
 5691 0843 04       		.byte	0x4
 5692 0844 04000000 		.4byte	$LCFI54-$LCFI53
 5693 0848 9E       		.byte	0x9e
 5694 0849 04       		.byte	0x4
 5695 084a 04       		.byte	0x4
 5696 084b 04000000 		.4byte	$LCFI55-$LCFI54
 5697 084f 0C       		.byte	0xc
 5698 0850 1E       		.byte	0x1e
 5699 0851 30       		.byte	0x30
 5700 0852 0000     		.align	2
 5701              	$LEFDE27:
 5702 0854 2C000000 		.4byte	$LEFDE29-$LSFDE29
 5703              	$LSFDE29:
 5704 0858 B8020000 		.4byte	$LSFDE29-__FRAME_BEGIN__
 5705 085c 08180000 		.4byte	$LFB15
 5706 0860 5C000000 		.4byte	$LFE15-$LFB15
 5707 0864 04       		.byte	0x4
 5708 0865 04000000 		.4byte	$LCFI56-$LFB15
 5709 0869 0E       		.byte	0xe
 5710 086a 30       		.byte	0x30
 5711 086b 04       		.byte	0x4
 5712 086c 04000000 		.4byte	$LCFI57-$LCFI56
 5713 0870 05       		.byte	0x5
 5714 0871 40       		.byte	0x40
 5715 0872 02       		.byte	0x2
 5716 0873 04       		.byte	0x4
 5717 0874 04000000 		.4byte	$LCFI58-$LCFI57
 5718 0878 9E       		.byte	0x9e
 5719 0879 04       		.byte	0x4
 5720 087a 04       		.byte	0x4
 5721 087b 04000000 		.4byte	$LCFI59-$LCFI58
GAS LISTING C:\DOCUME~1\Schmidt\LOCALS~1\Temp\ccKmaaaa.s 			page 115


 5722 087f 0C       		.byte	0xc
 5723 0880 1E       		.byte	0x1e
 5724 0881 30       		.byte	0x30
 5725 0882 0000     		.align	2
 5726              	$LEFDE29:
 5727 0884 2C000000 		.4byte	$LEFDE31-$LSFDE31
 5728              	$LSFDE31:
 5729 0888 E8020000 		.4byte	$LSFDE31-__FRAME_BEGIN__
 5730 088c 68180000 		.4byte	$LFB16
 5731 0890 5C000000 		.4byte	$LFE16-$LFB16
 5732 0894 04       		.byte	0x4
 5733 0895 04000000 		.4byte	$LCFI60-$LFB16
 5734 0899 0E       		.byte	0xe
 5735 089a 30       		.byte	0x30
 5736 089b 04       		.byte	0x4
 5737 089c 04000000 		.4byte	$LCFI61-$LCFI60
 5738 08a0 05       		.byte	0x5
 5739 08a1 40       		.byte	0x40
 5740 08a2 02       		.byte	0x2
 5741 08a3 04       		.byte	0x4
 5742 08a4 04000000 		.4byte	$LCFI62-$LCFI61
 5743 08a8 9E       		.byte	0x9e
 5744 08a9 04       		.byte	0x4
 5745 08aa 04       		.byte	0x4
 5746 08ab 04000000 		.4byte	$LCFI63-$LCFI62
 5747 08af 0C       		.byte	0xc
 5748 08b0 1E       		.byte	0x1e
 5749 08b1 30       		.byte	0x30
 5750 08b2 0000     		.align	2
 5751              	$LEFDE31:
 5752 08b4 2C000000 		.4byte	$LEFDE33-$LSFDE33
 5753              	$LSFDE33:
 5754 08b8 18030000 		.4byte	$LSFDE33-__FRAME_BEGIN__
 5755 08bc C8180000 		.4byte	$LFB17
 5756 08c0 A8010000 		.4byte	$LFE17-$LFB17
 5757 08c4 04       		.byte	0x4
 5758 08c5 04000000 		.4byte	$LCFI64-$LFB17
 5759 08c9 0E       		.byte	0xe
 5760 08ca 30       		.byte	0x30
 5761 08cb 04       		.byte	0x4
 5762 08cc 04000000 		.4byte	$LCFI65-$LCFI64
 5763 08d0 05       		.byte	0x5
 5764 08d1 40       		.byte	0x40
 5765 08d2 02       		.byte	0x2
 5766 08d3 04       		.byte	0x4
 5767 08d4 04000000 		.4byte	$LCFI66-$LCFI65
 5768 08d8 9E       		.byte	0x9e
 5769 08d9 04       		.byte	0x4
 5770 08da 04       		.byte	0x4
 5771 08db 04000000 		.4byte	$LCFI67-$LCFI66
 5772 08df 0C       		.byte	0xc
 5773 08e0 1E       		.byte	0x1e
 5774 08e1 30       		.byte	0x30
 5775 08e2 0000     		.align	2
 5776              	$LEFDE33:
 5777 08e4 2C000000 		.4byte	$LEFDE35-$LSFDE35
 5778              	$LSFDE35:
GAS LISTING C:\DOCUME~1\Schmidt\LOCALS~1\Temp\ccKmaaaa.s 			page 116


 5779 08e8 48030000 		.4byte	$LSFDE35-__FRAME_BEGIN__
 5780 08ec 701A0000 		.4byte	$LFB18
 5781 08f0 B0010000 		.4byte	$LFE18-$LFB18
 5782 08f4 04       		.byte	0x4
 5783 08f5 04000000 		.4byte	$LCFI68-$LFB18
 5784 08f9 0E       		.byte	0xe
 5785 08fa 30       		.byte	0x30
 5786 08fb 04       		.byte	0x4
 5787 08fc 04000000 		.4byte	$LCFI69-$LCFI68
 5788 0900 05       		.byte	0x5
 5789 0901 40       		.byte	0x40
 5790 0902 02       		.byte	0x2
 5791 0903 04       		.byte	0x4
 5792 0904 04000000 		.4byte	$LCFI70-$LCFI69
 5793 0908 9E       		.byte	0x9e
 5794 0909 04       		.byte	0x4
 5795 090a 04       		.byte	0x4
 5796 090b 04000000 		.4byte	$LCFI71-$LCFI70
 5797 090f 0C       		.byte	0xc
 5798 0910 1E       		.byte	0x1e
 5799 0911 30       		.byte	0x30
 5800 0912 0000     		.align	2
 5801              	$LEFDE35:
 5802 0914 2C000000 		.4byte	$LEFDE37-$LSFDE37
 5803              	$LSFDE37:
 5804 0918 78030000 		.4byte	$LSFDE37-__FRAME_BEGIN__
 5805 091c 201C0000 		.4byte	$LFB19
 5806 0920 B8000000 		.4byte	$LFE19-$LFB19
 5807 0924 04       		.byte	0x4
 5808 0925 04000000 		.4byte	$LCFI72-$LFB19
 5809 0929 0E       		.byte	0xe
 5810 092a 30       		.byte	0x30
 5811 092b 04       		.byte	0x4
 5812 092c 04000000 		.4byte	$LCFI73-$LCFI72
 5813 0930 05       		.byte	0x5
 5814 0931 40       		.byte	0x40
 5815 0932 02       		.byte	0x2
 5816 0933 04       		.byte	0x4
 5817 0934 04000000 		.4byte	$LCFI74-$LCFI73
 5818 0938 9E       		.byte	0x9e
 5819 0939 04       		.byte	0x4
 5820 093a 04       		.byte	0x4
 5821 093b 04000000 		.4byte	$LCFI75-$LCFI74
 5822 093f 0C       		.byte	0xc
 5823 0940 1E       		.byte	0x1e
 5824 0941 30       		.byte	0x30
 5825 0942 0000     		.align	2
 5826              	$LEFDE37:
 5827 0944 2C000000 		.4byte	$LEFDE39-$LSFDE39
 5828              	$LSFDE39:
 5829 0948 A8030000 		.4byte	$LSFDE39-__FRAME_BEGIN__
 5830 094c D81C0000 		.4byte	$LFB20
 5831 0950 04010000 		.4byte	$LFE20-$LFB20
 5832 0954 04       		.byte	0x4
 5833 0955 04000000 		.4byte	$LCFI76-$LFB20
 5834 0959 0E       		.byte	0xe
 5835 095a 30       		.byte	0x30
GAS LISTING C:\DOCUME~1\Schmidt\LOCALS~1\Temp\ccKmaaaa.s 			page 117


 5836 095b 04       		.byte	0x4
 5837 095c 04000000 		.4byte	$LCFI77-$LCFI76
 5838 0960 05       		.byte	0x5
 5839 0961 40       		.byte	0x40
 5840 0962 02       		.byte	0x2
 5841 0963 04       		.byte	0x4
 5842 0964 04000000 		.4byte	$LCFI78-$LCFI77
 5843 0968 9E       		.byte	0x9e
 5844 0969 04       		.byte	0x4
 5845 096a 04       		.byte	0x4
 5846 096b 04000000 		.4byte	$LCFI79-$LCFI78
 5847 096f 0C       		.byte	0xc
 5848 0970 1E       		.byte	0x1e
 5849 0971 30       		.byte	0x30
 5850 0972 0000     		.align	2
 5851              	$LEFDE39:
 5852 0974 2C000000 		.4byte	$LEFDE41-$LSFDE41
 5853              	$LSFDE41:
 5854 0978 D8030000 		.4byte	$LSFDE41-__FRAME_BEGIN__
 5855 097c E01D0000 		.4byte	$LFB21
 5856 0980 30080000 		.4byte	$LFE21-$LFB21
 5857 0984 04       		.byte	0x4
 5858 0985 04000000 		.4byte	$LCFI80-$LFB21
 5859 0989 0E       		.byte	0xe
 5860 098a 60       		.byte	0x60
 5861 098b 04       		.byte	0x4
 5862 098c 04000000 		.4byte	$LCFI81-$LCFI80
 5863 0990 05       		.byte	0x5
 5864 0991 40       		.byte	0x40
 5865 0992 02       		.byte	0x2
 5866 0993 04       		.byte	0x4
 5867 0994 04000000 		.4byte	$LCFI82-$LCFI81
 5868 0998 9E       		.byte	0x9e
 5869 0999 04       		.byte	0x4
 5870 099a 04       		.byte	0x4
 5871 099b 04000000 		.4byte	$LCFI83-$LCFI82
 5872 099f 0C       		.byte	0xc
 5873 09a0 1E       		.byte	0x1e
 5874 09a1 60       		.byte	0x60
 5875 09a2 0000     		.align	2
 5876              	$LEFDE41:
 5877 09a4 2C000000 		.4byte	$LEFDE43-$LSFDE43
 5878              	$LSFDE43:
 5879 09a8 08040000 		.4byte	$LSFDE43-__FRAME_BEGIN__
 5880 09ac 10260000 		.4byte	$LFB22
 5881 09b0 70020000 		.4byte	$LFE22-$LFB22
 5882 09b4 04       		.byte	0x4
 5883 09b5 04000000 		.4byte	$LCFI84-$LFB22
 5884 09b9 0E       		.byte	0xe
 5885 09ba 60       		.byte	0x60
 5886 09bb 04       		.byte	0x4
 5887 09bc 04000000 		.4byte	$LCFI85-$LCFI84
 5888 09c0 05       		.byte	0x5
 5889 09c1 40       		.byte	0x40
 5890 09c2 02       		.byte	0x2
 5891 09c3 04       		.byte	0x4
 5892 09c4 04000000 		.4byte	$LCFI86-$LCFI85
GAS LISTING C:\DOCUME~1\Schmidt\LOCALS~1\Temp\ccKmaaaa.s 			page 118


 5893 09c8 9E       		.byte	0x9e
 5894 09c9 04       		.byte	0x4
 5895 09ca 04       		.byte	0x4
 5896 09cb 04000000 		.4byte	$LCFI87-$LCFI86
 5897 09cf 0C       		.byte	0xc
 5898 09d0 1E       		.byte	0x1e
 5899 09d1 60       		.byte	0x60
 5900 09d2 0000     		.align	2
 5901              	$LEFDE43:
 5902 09d4 34000000 		.4byte	$LEFDE45-$LSFDE45
 5903              	$LSFDE45:
 5904 09d8 38040000 		.4byte	$LSFDE45-__FRAME_BEGIN__
 5905 09dc 80280000 		.4byte	$LFB23
 5906 09e0 6C040000 		.4byte	$LFE23-$LFB23
 5907 09e4 04       		.byte	0x4
 5908 09e5 04000000 		.4byte	$LCFI88-$LFB23
 5909 09e9 0E       		.byte	0xe
 5910 09ea 9001     		.byte	0x90,0x1
 5911 09ec 04       		.byte	0x4
 5912 09ed 04000000 		.4byte	$LCFI89-$LCFI88
 5913 09f1 05       		.byte	0x5
 5914 09f2 40       		.byte	0x40
 5915 09f3 02       		.byte	0x2
 5916 09f4 04       		.byte	0x4
 5917 09f5 04000000 		.4byte	$LCFI90-$LCFI89
 5918 09f9 9E       		.byte	0x9e
 5919 09fa 04       		.byte	0x4
 5920 09fb 04       		.byte	0x4
 5921 09fc 04000000 		.4byte	$LCFI91-$LCFI90
 5922 0a00 90       		.byte	0x90
 5923 0a01 06       		.byte	0x6
 5924 0a02 04       		.byte	0x4
 5925 0a03 04000000 		.4byte	$LCFI92-$LCFI91
 5926 0a07 0C       		.byte	0xc
 5927 0a08 1E       		.byte	0x1e
 5928 0a09 9001     		.byte	0x90,0x1
 5929 0a0b 00       		.align	2
 5930              	$LEFDE45:
 5931 0a0c 24000000 		.4byte	$LEFDE47-$LSFDE47
 5932              	$LSFDE47:
 5933 0a10 70040000 		.4byte	$LSFDE47-__FRAME_BEGIN__
 5934 0a14 F02C0000 		.4byte	$LFB24
 5935 0a18 B8000000 		.4byte	$LFE24-$LFB24
 5936 0a1c 04       		.byte	0x4
 5937 0a1d 04000000 		.4byte	$LCFI93-$LFB24
 5938 0a21 0E       		.byte	0xe
 5939 0a22 20       		.byte	0x20
 5940 0a23 04       		.byte	0x4
 5941 0a24 04000000 		.4byte	$LCFI94-$LCFI93
 5942 0a28 9E       		.byte	0x9e
 5943 0a29 02       		.byte	0x2
 5944 0a2a 04       		.byte	0x4
 5945 0a2b 04000000 		.4byte	$LCFI95-$LCFI94
 5946 0a2f 0C       		.byte	0xc
 5947 0a30 1E       		.byte	0x1e
 5948 0a31 20       		.byte	0x20
 5949 0a32 0000     		.align	2
GAS LISTING C:\DOCUME~1\Schmidt\LOCALS~1\Temp\ccKmaaaa.s 			page 119


 5950              	$LEFDE47:
 5951 0a34 24000000 		.4byte	$LEFDE49-$LSFDE49
 5952              	$LSFDE49:
 5953 0a38 98040000 		.4byte	$LSFDE49-__FRAME_BEGIN__
 5954 0a3c A82D0000 		.4byte	$LFB25
 5955 0a40 9C000000 		.4byte	$LFE25-$LFB25
 5956 0a44 04       		.byte	0x4
 5957 0a45 04000000 		.4byte	$LCFI96-$LFB25
 5958 0a49 0E       		.byte	0xe
 5959 0a4a 20       		.byte	0x20
 5960 0a4b 04       		.byte	0x4
 5961 0a4c 04000000 		.4byte	$LCFI97-$LCFI96
 5962 0a50 9E       		.byte	0x9e
 5963 0a51 02       		.byte	0x2
 5964 0a52 04       		.byte	0x4
 5965 0a53 04000000 		.4byte	$LCFI98-$LCFI97
 5966 0a57 0C       		.byte	0xc
 5967 0a58 1E       		.byte	0x1e
 5968 0a59 20       		.byte	0x20
 5969 0a5a 0000     		.align	2
 5970              	$LEFDE49:
 5971 0a5c 34000000 		.4byte	$LEFDE51-$LSFDE51
 5972              	$LSFDE51:
 5973 0a60 C0040000 		.4byte	$LSFDE51-__FRAME_BEGIN__
 5974 0a64 482E0000 		.4byte	$LFB26
 5975 0a68 A4010000 		.4byte	$LFE26-$LFB26
 5976 0a6c 04       		.byte	0x4
 5977 0a6d 04000000 		.4byte	$LCFI99-$LFB26
 5978 0a71 0E       		.byte	0xe
 5979 0a72 40       		.byte	0x40
 5980 0a73 04       		.byte	0x4
 5981 0a74 04000000 		.4byte	$LCFI100-$LCFI99
 5982 0a78 05       		.byte	0x5
 5983 0a79 40       		.byte	0x40
 5984 0a7a 02       		.byte	0x2
 5985 0a7b 04       		.byte	0x4
 5986 0a7c 04000000 		.4byte	$LCFI101-$LCFI100
 5987 0a80 9E       		.byte	0x9e
 5988 0a81 04       		.byte	0x4
 5989 0a82 04       		.byte	0x4
 5990 0a83 04000000 		.4byte	$LCFI102-$LCFI101
 5991 0a87 90       		.byte	0x90
 5992 0a88 06       		.byte	0x6
 5993 0a89 04       		.byte	0x4
 5994 0a8a 04000000 		.4byte	$LCFI103-$LCFI102
 5995 0a8e 0C       		.byte	0xc
 5996 0a8f 1E       		.byte	0x1e
 5997 0a90 40       		.byte	0x40
 5998 0a91 000000   		.align	2
 5999              	$LEFDE51:
 6000 0a94 2C000000 		.4byte	$LEFDE53-$LSFDE53
 6001              	$LSFDE53:
 6002 0a98 F8040000 		.4byte	$LSFDE53-__FRAME_BEGIN__
 6003 0a9c F02F0000 		.4byte	$LFB27
 6004 0aa0 4C000000 		.4byte	$LFE27-$LFB27
 6005 0aa4 04       		.byte	0x4
 6006 0aa5 04000000 		.4byte	$LCFI104-$LFB27
GAS LISTING C:\DOCUME~1\Schmidt\LOCALS~1\Temp\ccKmaaaa.s 			page 120


 6007 0aa9 0E       		.byte	0xe
 6008 0aaa 20       		.byte	0x20
 6009 0aab 04       		.byte	0x4
 6010 0aac 04000000 		.4byte	$LCFI105-$LCFI104
 6011 0ab0 05       		.byte	0x5
 6012 0ab1 40       		.byte	0x40
 6013 0ab2 02       		.byte	0x2
 6014 0ab3 04       		.byte	0x4
 6015 0ab4 04000000 		.4byte	$LCFI106-$LCFI105
 6016 0ab8 9E       		.byte	0x9e
 6017 0ab9 04       		.byte	0x4
 6018 0aba 04       		.byte	0x4
 6019 0abb 04000000 		.4byte	$LCFI107-$LCFI106
 6020 0abf 0C       		.byte	0xc
 6021 0ac0 1E       		.byte	0x1e
 6022 0ac1 20       		.byte	0x20
 6023 0ac2 0000     		.align	2
 6024              	$LEFDE53:
 6025 0ac4 34000000 		.4byte	$LEFDE55-$LSFDE55
 6026              	$LSFDE55:
 6027 0ac8 28050000 		.4byte	$LSFDE55-__FRAME_BEGIN__
 6028 0acc 40300000 		.4byte	$LFB28
 6029 0ad0 28010000 		.4byte	$LFE28-$LFB28
 6030 0ad4 04       		.byte	0x4
 6031 0ad5 04000000 		.4byte	$LCFI108-$LFB28
 6032 0ad9 0E       		.byte	0xe
 6033 0ada 40       		.byte	0x40
 6034 0adb 04       		.byte	0x4
 6035 0adc 04000000 		.4byte	$LCFI109-$LCFI108
 6036 0ae0 05       		.byte	0x5
 6037 0ae1 40       		.byte	0x40
 6038 0ae2 02       		.byte	0x2
 6039 0ae3 04       		.byte	0x4
 6040 0ae4 04000000 		.4byte	$LCFI110-$LCFI109
 6041 0ae8 9E       		.byte	0x9e
 6042 0ae9 04       		.byte	0x4
 6043 0aea 04       		.byte	0x4
 6044 0aeb 04000000 		.4byte	$LCFI111-$LCFI110
 6045 0aef 90       		.byte	0x90
 6046 0af0 06       		.byte	0x6
 6047 0af1 04       		.byte	0x4
 6048 0af2 04000000 		.4byte	$LCFI112-$LCFI111
 6049 0af6 0C       		.byte	0xc
 6050 0af7 1E       		.byte	0x1e
 6051 0af8 40       		.byte	0x40
 6052 0af9 000000   		.align	2
 6053              	$LEFDE55:
 6054 0afc 34000000 		.4byte	$LEFDE57-$LSFDE57
 6055              	$LSFDE57:
 6056 0b00 60050000 		.4byte	$LSFDE57-__FRAME_BEGIN__
 6057 0b04 68310000 		.4byte	$LFB29
 6058 0b08 1C010000 		.4byte	$LFE29-$LFB29
 6059 0b0c 04       		.byte	0x4
 6060 0b0d 04000000 		.4byte	$LCFI113-$LFB29
 6061 0b11 0E       		.byte	0xe
 6062 0b12 40       		.byte	0x40
 6063 0b13 04       		.byte	0x4
GAS LISTING C:\DOCUME~1\Schmidt\LOCALS~1\Temp\ccKmaaaa.s 			page 121


 6064 0b14 04000000 		.4byte	$LCFI114-$LCFI113
 6065 0b18 05       		.byte	0x5
 6066 0b19 40       		.byte	0x40
 6067 0b1a 02       		.byte	0x2
 6068 0b1b 04       		.byte	0x4
 6069 0b1c 04000000 		.4byte	$LCFI115-$LCFI114
 6070 0b20 9E       		.byte	0x9e
 6071 0b21 04       		.byte	0x4
 6072 0b22 04       		.byte	0x4
 6073 0b23 04000000 		.4byte	$LCFI116-$LCFI115
 6074 0b27 90       		.byte	0x90
 6075 0b28 06       		.byte	0x6
 6076 0b29 04       		.byte	0x4
 6077 0b2a 04000000 		.4byte	$LCFI117-$LCFI116
 6078 0b2e 0C       		.byte	0xc
 6079 0b2f 1E       		.byte	0x1e
 6080 0b30 40       		.byte	0x40
 6081 0b31 000000   		.align	2
 6082              	$LEFDE57:
 6083 0b34 00000000 		.4byte	0x0
 6084              		.align	0
